******************************************************************************
            TI ARM Clang Linker PC v4.0.4                      
******************************************************************************
>> Linked Sun May 24 12:01:09 2026

OUTPUT FILE NAME:   <test.out>
ENTRY POINT SYMBOL: "_c_int00_noargs"  address: 00006ec1


MEMORY CONFIGURATION

         name            origin    length      used     unused   attr    fill
----------------------  --------  ---------  --------  --------  ----  --------
  FLASH                 00000000   00020000  00008b30  000174d0  R  X
  SRAM                  20200000   00008000  00000d72  0000728e  RW X
  BCR_CONFIG            41c00000   000000ff  00000000  000000ff  R   
  BSL_CONFIG            41c00100   00000080  00000000  00000080  R   


SEGMENT ALLOCATION MAP

run origin  load origin   length   init length attrs members
----------  ----------- ---------- ----------- ----- -------
00000000    00000000    00008b30   00008b30    r-x
  00000000    00000000    000000c0   000000c0    r-- .intvecs
  000000c0    000000c0    00007b30   00007b30    r-x .text
  00007bf0    00007bf0    00000dd0   00000dd0    r-- .rodata
  000089c0    000089c0    00000170   00000170    r-- .cinit
20200000    20200000    00000b72   00000000    rw-
  20200000    20200000    000006cc   00000000    rw- .bss
  202006cc    202006cc    000004a6   00000000    rw- .data
20207e00    20207e00    00000200   00000000    rw-
  20207e00    20207e00    00000200   00000000    rw- .stack


SECTION ALLOCATION MAP

 output                                  attributes/
section   page    origin      length       input sections
--------  ----  ----------  ----------   ----------------
.intvecs   0    00000000    000000c0     
                  00000000    000000c0     startup_mspm0g350x_ticlang.o (.intvecs)

.text      0    000000c0    00007b30     
                  000000c0    000017c4     Task.o (.text.while_task)
                  00001884    000003e0     chasis.o (.text.chasis_cal)
                  00001c64    00000298     chasis.o (.text.mec_inverse)
                  00001efc    00000280     chasis.o (.text.chasis_trapezoid_move)
                  0000217c    00000214     driverlib.a : dl_mcan.o (.text.DL_MCAN_msgRAMConfig)
                  00002390    00000214     wit_c_sdk.o (.text.WitSerialDataIn)
                  000025a4    000001fc     ultrasonic.o (.text.Ultrasonic_GPIOB_ISR)
                  000027a0    000001ec     Task.o (.text.param_editor)
                  0000298c    000001e0     ti_msp_dl_config.o (.text.SYSCFG_DL_GPIO_init)
                  00002b6c    000001b8     bsp_PWM.o (.text.motor_set)
                  00002d24    0000019c     Task.o (.text.UART_Rx_DMA_ToIdle_Callback)
                  00002ec0    0000017c     wit_c_sdk.o (.text.WitWriteReg)
                  0000303c    00000158     wit_c_sdk.o (.text.CopeWitData)
                  00003194    00000118     bsp_oled.o (.text.OLED_ShowChar)
                  000032ac    00000114     bsp_oled.o (.text.OLED_Init)
                  000033c0    0000010c     driverlib.a : dl_mcan.o (.text.DL_MCAN_readMsgRam)
                  000034cc    0000010a     ZDT_CAN.o (.text.can_SendCmd)
                  000035d6    00000002     Task.o (.text.Key_B21_Long)
                  000035d8    00000108     Task.o (.text.one_hundured_ms_callback)
                  000036e0    00000104     driverlib.a : dl_timer.o (.text.DL_Timer_initFourCCPWMMode)
                  000037e4    000000fc                 : dl_timer.o (.text.DL_Timer_initTimerMode)
                  000038e0    000000f6     bsp_oled.o (.text.OLED_ShowNum)
                  000039d6    00000002     libclang_rt.builtins.a : aeabi_div0.c.obj (.text.__aeabi_idiv0)
                  000039d8    000000f4     driverlib.a : dl_mcan.o (.text.DL_MCAN_writeMsgRam)
                  00003acc    000000f0     task_scheduler.o (.text.Menu_Enter)
                  00003bbc    000000f0     task_scheduler.o (.text.Menu_Run)
                  00003cac    000000ec     ti_msp_dl_config.o (.text.SYSCFG_DL_MCAN0_init)
                  00003d98    000000e8     bsp_key.o (.text.KEY_Poll)
                  00003e80    000000e8     ti_msp_dl_config.o (.text.SYSCFG_DL_FRONT_OUT_init)
                  00003f68    000000e8     ti_msp_dl_config.o (.text.SYSCFG_DL_SYSCTL_SYSPLL_init)
                  00004050    000000dc     driverlib.a : dl_mcan.o (.text.DL_MCAN_init)
                  0000412c    000000dc                 : dl_sysctl_mspm0g1x0x_g3x0x.o (.text.DL_SYSCTL_configSYSPLL)
                  00004208    000000d8                 : dl_mcan.o (.text.DL_MCAN_setBitTime)
                  000042e0    000000d8     task_scheduler.o (.text.Menu_Draw)
                  000043b8    000000d8     Task.o (.text.filter_average)
                  00004490    000000d8     bsp_PWM.o (.text.motor_coast)
                  00004568    000000d8     libclang_rt.builtins.a : addsf3.S.obj (.text)
                  00004640    000000d4     bsp_PWM.o (.text.motor_brake)
                  00004714    000000d0     chasis.o (.text.motor_openloop_drive)
                  000047e4    000000c4     ti_msp_dl_config.o (.text.SYSCFG_DL_initPower)
                  000048a8    000000c4     ultrasonic.o (.text.Ultrasonic_Trigger)
                  0000496c    000000bc     bsp_CAN.o (.text.CAN_send_ext_frame)
                  00004a28    000000a2     libclang_rt.builtins.a : udivmoddi4.S.obj (.text)
                  00004aca    00000002                            : aeabi_div0.c.obj (.text.__aeabi_ldiv0)
                  00004acc    0000009c     ti_msp_dl_config.o (.text.SYSCFG_DL_RR_OUT_init)
                  00004b68    00000098     bsp_oled.o (.text.OLED_WR_Byte)
                  00004c00    00000098     ti_msp_dl_config.o (.text.SYSCFG_DL_RL_OUT_init)
                  00004c98    00000098     bsp_UART1.o (.text.uart1_isIDLE)
                  00004d30    00000090     bsp_UART.o (.text.uart_isIDLE)
                  00004dc0    0000008c     libclang_rt.builtins.a : mulsf3.S.obj (.text.__mulsf3)
                  00004e4c    0000008c     Task.o (.text.ms_callback)
                  00004ed8    00000088     empty.o (.text.SysTick_Handler)
                  00004f60    00000084     task_scheduler.o (.text.Menu_Next)
                  00004fe4    00000084     ti_msp_dl_config.o (.text.__NVIC_SetPriority)
                  00005068    00000082     libclang_rt.builtins.a : divsf3.S.obj (.text.__divsf3)
                  000050ea    00000080     ZDT_Driver.o (.text.Emm_V5_Pos_Control)
                  0000516a    00000002     --HOLE-- [fill = 0]
                  0000516c    00000080     bsp_UART.o (.text.UART0_IRQHandler)
                  000051ec    00000080     bsp_UART1.o (.text.UART1_IRQHandler)
                  0000526c    0000007c     Task.o (.text.CAN_Rx_FIFO0_New_Message_Callback)
                  000052e8    0000007c     ti_msp_dl_config.o (.text.SYSCFG_DL_SYSCTL_init)
                  00005364    0000007c     bsp_CAN.o (.text.handleCanRxMessage)
                  000053e0    0000007c     libc.a : copy_decompress_lzss.c.obj (.text:decompress:lzss)
                  0000545c    00000078     ti_msp_dl_config.o (.text.SYSCFG_DL_UART_0_init)
                  000054d4    00000078     ti_msp_dl_config.o (.text.SYSCFG_DL_UART_1_init)
                  0000554c    00000074     libclang_rt.builtins.a : comparedf2.c.obj (.text.__gedf2)
                  000055c0    00000074     chasis.o (.text.chasis_set_velocity)
                  00005634    00000070     bsp_oled.o (.text.OLED_ShowString)
                  000056a4    00000070     wit_c_sdk.o (.text.__CRC16)
                  00005714    00000070     empty.o (.text.main)
                  00005784    0000006c     Task.o (.text._show_signed)
                  000057f0    0000006a     bsp_oled.o (.text.OLED_Clear)
                  0000585a    00000002     --HOLE-- [fill = 0]
                  0000585c    00000068     libclang_rt.builtins.a : comparedf2.c.obj (.text.__ledf2)
                  000058c4    00000064     driverlib.a : dl_sysctl_mspm0g1x0x_g3x0x.o (.text.DL_SYSCTL_setHFCLKSourceHFXTParams)
                  00005928    00000064     bsp_key.o (.text.GROUP1_IRQHandler)
                  0000598c    00000062     libclang_rt.builtins.a : aeabi_dcmp.S.obj (.text.__aeabi_dcmp)
                  000059ee    00000002     --HOLE-- [fill = 0]
                  000059f0    00000062                            : aeabi_fcmp.S.obj (.text.__aeabi_fcmp)
                  00005a52    00000002     --HOLE-- [fill = 0]
                  00005a54    00000060     driverlib.a : dl_sysctl_mspm0g1x0x_g3x0x.o (.text.DL_SYSCTL_setLFCLKSourceLFXT)
                  00005ab4    00000060     ti_msp_dl_config.o (.text.SYSCFG_DL_init)
                  00005b14    00000060     bsp_oled.o (.text.oled_i2c_sda_unlock)
                  00005b74    00000060     bsp_UART1.o (.text.uart1_send)
                  00005bd4    00000060     bsp_UART.o (.text.uart_send)
                  00005c34    0000005e     driverlib.a : dl_i2c.o (.text.DL_I2C_fillControllerTXFIFO)
                  00005c92    00000002     --HOLE-- [fill = 0]
                  00005c94    0000005c     bsp_oled.o (.text.mspm0_i2c_enable)
                  00005cf0    00000058     ti_msp_dl_config.o (.text.SYSCFG_DL_I2C_OLED_init)
                  00005d48    00000058     ultrasonic.o (.text.Ultrasonic_Init)
                  00005da0    00000054     timer.o (.text.Timestamp_Init)
                  00005df4    00000054     gimbal.o (.text.gimbal_update)
                  00005e48    00000054     bsp_UART1.o (.text.uart1_receive_start)
                  00005e9c    00000054     bsp_UART.o (.text.uart_receive_start)
                  00005ef0    00000050     bsp_oled.o (.text.DL_GPIO_initPeripheralInputFunctionFeatures)
                  00005f40    00000050     ti_msp_dl_config.o (.text.DL_GPIO_initPeripheralInputFunctionFeatures)
                  00005f90    00000050     bsp_oled.o (.text.DL_I2C_startControllerTransfer)
                  00005fe0    00000050     ti_msp_dl_config.o (.text.SysTick_Config)
                  00006030    0000004c     driverlib.a : dl_dma.o (.text.DL_DMA_initChannel)
                  0000607c    0000004c     bsp_oled.o (.text.DL_GPIO_initDigitalInputFeatures)
                  000060c8    0000004c     ti_msp_dl_config.o (.text.DL_GPIO_initDigitalInputFeatures)
                  00006114    0000004c     ti_msp_dl_config.o (.text.DL_UART_setBaudRateDivisor)
                  00006160    0000004c     chasis.o (.text.chasis_brake)
                  000061ac    0000004a     ZDT_Driver.o (.text.Emm_V5_En_Control)
                  000061f6    00000002     --HOLE-- [fill = 0]
                  000061f8    00000048     driverlib.a : dl_uart.o (.text.DL_UART_init)
                  00006240    00000048     Task.o (.text.Task_Cleanup)
                  00006288    00000044     bsp_CAN.o (.text.CANFD0_IRQHandler)
                  000062cc    00000044     driverlib.a : dl_mcan.o (.text.DL_MCAN_getRevisionId)
                  00006310    00000044                 : dl_sysctl_mspm0g1x0x_g3x0x.o (.text.DL_SYSCTL_switchMCLKfromSYSOSCtoHSCLK)
                  00006354    00000044     ultrasonic.o (.text.Ultrasonic_GetDistance_mm)
                  00006398    00000044     bsp_oled.o (.text.mspm0_i2c_disable)
                  000063dc    00000040     driverlib.a : dl_mcan.o (.text.DL_MCAN_writeRxFIFOAck)
                  0000641c    00000040     ZDT_Driver.o (.text.Emm_V5_Origin_Set_O)
                  0000645c    00000040     Task.o (.text.UART1_Rx_DMA_ToIdle_Callback)
                  0000649c    00000040     ultrasonic.o (.text.Ultrasonic_IsDataReady)
                  000064dc    00000040     wit_c_sdk.o (.text.WitInit)
                  0000651c    00000040     libclang_rt.builtins.a : aeabi_uidivmod.S.obj (.text.__aeabi_uidivmod)
                  0000655c    0000003e     ZDT_Driver.o (.text.Emm_V5_Origin_Trigger_Return)
                  0000659a    00000002     --HOLE-- [fill = 0]
                  0000659c    0000003c     ti_msp_dl_config.o (.text.DL_Timer_setCounterControl)
                  000065d8    0000003c     JY901.o (.text.JY901_Init)
                  00006614    0000003c     task_scheduler.o (.text.Menu_Init)
                  00006650    0000003c     bsp_oled.o (.text.OLED_Set_Pos)
                  0000668c    0000003c     timer.o (.text.Timestamp_GetTicks)
                  000066c8    0000003c     libclang_rt.builtins.a : floatsisf.S.obj (.text.__floatsisf)
                  00006704    0000003c                            : comparesf2.S.obj (.text.__gtsf2)
                  00006740    0000003c     libc.a : autoinit.c.obj (.text:__TI_auto_init_nobinit_nopinit)
                  0000677c    0000003a     wit_c_sdk.o (.text.__CaliSum)
                  000067b6    00000002     --HOLE-- [fill = 0]
                  000067b8    0000003a     libclang_rt.builtins.a : comparesf2.S.obj (.text.__eqsf2)
                  000067f2    00000002     --HOLE-- [fill = 0]
                  000067f4    0000003a                            : muldsi3.S.obj (.text.__muldsi3)
                  0000682e    00000002     --HOLE-- [fill = 0]
                  00006830    00000038     driverlib.a : dl_mcan.o (.text.DL_MCAN_getRxFIFOStatus)
                  00006868    00000038     libclang_rt.builtins.a : fixsfsi.S.obj (.text.__fixsfsi)
                  000068a0    00000034     driverlib.a : dl_mcan.o (.text.DL_MCAN_TXBufAddReq)
                  000068d4    00000034                 : dl_mcan.o (.text.DL_MCAN_setExtIDAndMask)
                  00006908    00000034     ti_msp_dl_config.o (.text.SYSCFG_DL_US_TIMER_init)
                  0000693c    00000034     ultrasonic.o (.text.Ultrasonic_GetPulseWidth_us)
                  00006970    00000032     libclang_rt.builtins.a : fixunssfsi.S.obj (.text.__fixunssfsi)
                  000069a2    00000002     --HOLE-- [fill = 0]
                  000069a4    00000030     bsp_UART.o (.text.DL_DMA_setTransferSize)
                  000069d4    00000030     bsp_UART1.o (.text.DL_DMA_setTransferSize)
                  00006a04    00000030     ti_msp_dl_config.o (.text.DL_GPIO_initDigitalOutputFeatures)
                  00006a34    00000030     ti_msp_dl_config.o (.text.SYSCFG_DL_DMA_CH0_init)
                  00006a64    00000030     ti_msp_dl_config.o (.text.SYSCFG_DL_DMA_CH1_init)
                  00006a94    00000030     ti_msp_dl_config.o (.text.SYSCFG_DL_DMA_CH2_init)
                  00006ac4    00000030     ti_msp_dl_config.o (.text.SYSCFG_DL_DMA_CH3_init)
                  00006af4    00000030     bsp_oled.o (.text.oled_pow)
                  00006b24    0000002c     driverlib.a : dl_mcan.o (.text.DL_MCAN_TXBufTransIntrEnable)
                  00006b50    0000002c                 : dl_mcan.o (.text.DL_MCAN_addExtMsgIDFilter)
                  00006b7c    0000002c                 : dl_mcan.o (.text.DL_MCAN_addStdMsgIDFilter)
                  00006ba8    0000002c     timer.o (.text.TIMG12_IRQHandler)
                  00006bd4    0000002c     wit_c_sdk.o (.text.WitDelayMsRegister)
                  00006c00    0000002c     wit_c_sdk.o (.text.WitRegisterCallBack)
                  00006c2c    0000002c     wit_c_sdk.o (.text.WitSerialWriteRegister)
                  00006c58    0000002c     bsp_key.o (.text.__NVIC_EnableIRQ)
                  00006c84    0000002c     empty.o (.text.__NVIC_EnableIRQ)
                  00006cb0    0000002c     timer.o (.text.__NVIC_EnableIRQ)
                  00006cdc    0000002c     empty.o (.text.mspm0_get_clock_ms)
                  00006d08    00000028     bsp_oled.o (.text.DL_Common_updateReg)
                  00006d30    00000028     ti_msp_dl_config.o (.text.DL_Common_updateReg)
                  00006d58    00000028     bsp_UART.o (.text.DL_DMA_setDestAddr)
                  00006d80    00000028     bsp_UART1.o (.text.DL_DMA_setDestAddr)
                  00006da8    00000028     bsp_UART.o (.text.DL_DMA_setSrcAddr)
                  00006dd0    00000028     bsp_UART1.o (.text.DL_DMA_setSrcAddr)
                  00006df8    00000028     ti_msp_dl_config.o (.text.DL_I2C_setControllerRXFIFOThreshold)
                  00006e20    00000028     ti_msp_dl_config.o (.text.DL_I2C_setControllerTXFIFOThreshold)
                  00006e48    00000028     ti_msp_dl_config.o (.text.DL_UART_setRXFIFOThreshold)
                  00006e70    00000028     ti_msp_dl_config.o (.text.DL_UART_setTXFIFOThreshold)
                  00006e98    00000028     libclang_rt.builtins.a : floatunsisf.S.obj (.text.__floatunsisf)
                  00006ec0    00000028     libc.a : boot_cortex_m.c.obj (.text:_c_int00_noargs)
                  00006ee8    00000026     bsp_UART.o (.text.DL_DMA_disableChannel)
                  00006f0e    00000026     bsp_UART1.o (.text.DL_DMA_disableChannel)
                  00006f34    00000026     bsp_UART.o (.text.DL_DMA_enableChannel)
                  00006f5a    00000026     bsp_UART1.o (.text.DL_DMA_enableChannel)
                  00006f80    00000026     ti_msp_dl_config.o (.text.DL_I2C_setAnalogGlitchFilterPulseWidth)
                  00006fa6    00000026     driverlib.a : dl_i2c.o (.text.DL_I2C_setClockConfig)
                  00006fcc    00000024     bsp_UART.o (.text.DL_DMA_getTransferSize)
                  00006ff0    00000024     bsp_UART1.o (.text.DL_DMA_getTransferSize)
                  00007014    00000024     driverlib.a : dl_mcan.o (.text.DL_MCAN_setClockConfig)
                  00007038    00000024     ti_msp_dl_config.o (.text.DL_UART_setRXInterruptTimeout)
                  0000705c    00000024     JY901.o (.text.JY901_Update)
                  00007080    00000024     libclang_rt.builtins.a : floatunsidf.S.obj (.text.__floatunsidf)
                  000070a4    00000020     ti_msp_dl_config.o (.text.DL_GPIO_initPeripheralInputFunction)
                  000070c4    00000020     driverlib.a : dl_mcan.o (.text.DL_MCAN_getTxFIFOQueStatus)
                  000070e4    00000020     ti_msp_dl_config.o (.text.DL_SYSCTL_setFlashWaitState)
                  00007104    00000020     gimbal.o (.text.gimbal_enable)
                  00007124    0000001e     ti_msp_dl_config.o (.text.DL_UART_setOversampling)
                  00007142    00000002     --HOLE-- [fill = 0]
                  00007144    0000001e     libclang_rt.builtins.a : ashldi3.S.obj (.text.__ashldi3)
                  00007162    0000001e     gimbal.o (.text.gimbal_disable)
                  00007180    0000001e     gimbal.o (.text.gimbal_return_zero)
                  0000719e    00000002     --HOLE-- [fill = 0]
                  000071a0    0000001c     ti_msp_dl_config.o (.text.DL_DMA_enableInterrupt)
                  000071bc    0000001c     bsp_key.o (.text.DL_GPIO_clearInterruptStatus)
                  000071d8    0000001c     ti_msp_dl_config.o (.text.DL_GPIO_clearInterruptStatus)
                  000071f4    0000001c     ultrasonic.o (.text.DL_GPIO_clearInterruptStatus)
                  00007210    0000001c     ultrasonic.o (.text.DL_GPIO_disableInterrupt)
                  0000722c    0000001c     bsp_oled.o (.text.DL_GPIO_enableHiZ)
                  00007248    0000001c     ti_msp_dl_config.o (.text.DL_GPIO_enableHiZ)
                  00007264    0000001c     ti_msp_dl_config.o (.text.DL_GPIO_enableInterrupt)
                  00007280    0000001c     ultrasonic.o (.text.DL_GPIO_enableInterrupt)
                  0000729c    0000001c     ti_msp_dl_config.o (.text.DL_GPIO_initPeripheralOutputFunction)
                  000072b8    0000001c     ti_msp_dl_config.o (.text.DL_GPIO_setLowerPinsPolarity)
                  000072d4    0000001c     bsp_oled.o (.text.DL_I2C_getSDAStatus)
                  000072f0    0000001c     bsp_key.o (.text.DL_Interrupt_getPendingGroup)
                  0000730c    0000001c     ti_msp_dl_config.o (.text.DL_MCAN_enableInterrupt)
                  00007328    0000001c     driverlib.a : dl_mcan.o (.text.DL_MCAN_enableIntr)
                  00007344    0000001c                 : dl_mcan.o (.text.DL_MCAN_enableIntrLine)
                  00007360    0000001c                 : dl_mcan.o (.text.DL_MCAN_selectIntrLine)
                  0000737c    0000001c                 : dl_sysctl_mspm0g1x0x_g3x0x.o (.text.DL_SYSCTL_configFCC)
                  00007398    0000001c     ti_msp_dl_config.o (.text.DL_SYSCTL_setFCCPeriods)
                  000073b4    0000001c     ti_msp_dl_config.o (.text.DL_SYSCTL_setSYSOSCFreq)
                  000073d0    0000001c     ti_msp_dl_config.o (.text.DL_SYSCTL_setULPCLKDivider)
                  000073ec    0000001c     ti_msp_dl_config.o (.text.DL_Timer_enableInterrupt)
                  00007408    0000001c     timer.o (.text.DL_Timer_enableInterrupt)
                  00007424    0000001c     driverlib.a : dl_timer.o (.text.DL_Timer_setCaptCompUpdateMethod)
                  00007440    0000001c                 : dl_timer.o (.text.DL_Timer_setClockConfig)
                  0000745c    0000001c     ti_msp_dl_config.o (.text.DL_UART_enableInterrupt)
                  00007478    0000001c     empty.o (.text.mspm0_delay_ms)
                  00007494    0000001a     gimbal.o (.text.gimbal_set_zero)
                  000074ae    00000002     --HOLE-- [fill = 0]
                  000074b0    00000018     ti_msp_dl_config.o (.text.DL_DMA_clearInterruptStatus)
                  000074c8    00000018     bsp_oled.o (.text.DL_GPIO_enableOutput)
                  000074e0    00000018     ti_msp_dl_config.o (.text.DL_GPIO_enableOutput)
                  000074f8    00000018     ti_msp_dl_config.o (.text.DL_GPIO_enablePower)
                  00007510    00000018     bsp_oled.o (.text.DL_GPIO_initDigitalOutput)
                  00007528    00000018     ti_msp_dl_config.o (.text.DL_GPIO_initDigitalOutput)
                  00007540    00000018     ti_msp_dl_config.o (.text.DL_GPIO_initPeripheralAnalogFunction)
                  00007558    00000018     ti_msp_dl_config.o (.text.DL_GPIO_reset)
                  00007570    00000018     bsp_oled.o (.text.DL_GPIO_setPins)
                  00007588    00000018     empty.o (.text.DL_GPIO_setPins)
                  000075a0    00000018     ultrasonic.o (.text.DL_GPIO_setPins)
                  000075b8    00000018     ti_msp_dl_config.o (.text.DL_GPIO_setUpperPinsPolarity)
                  000075d0    00000018     empty.o (.text.DL_GPIO_togglePins)
                  000075e8    00000018     bsp_oled.o (.text.DL_I2C_clearInterruptStatus)
                  00007600    00000018     ti_msp_dl_config.o (.text.DL_I2C_enableAnalogGlitchFilter)
                  00007618    00000018     ti_msp_dl_config.o (.text.DL_I2C_enableController)
                  00007630    00000018     ti_msp_dl_config.o (.text.DL_I2C_enableControllerClockStretching)
                  00007648    00000018     bsp_oled.o (.text.DL_I2C_enablePower)
                  00007660    00000018     ti_msp_dl_config.o (.text.DL_I2C_enablePower)
                  00007678    00000018     bsp_oled.o (.text.DL_I2C_getRawInterruptStatus)
                  00007690    00000018     bsp_oled.o (.text.DL_I2C_reset)
                  000076a8    00000018     ti_msp_dl_config.o (.text.DL_I2C_reset)
                  000076c0    00000018     ti_msp_dl_config.o (.text.DL_I2C_setTimerPeriod)
                  000076d8    00000018     ti_msp_dl_config.o (.text.DL_MCAN_clearInterruptStatus)
                  000076f0    00000018     ti_msp_dl_config.o (.text.DL_MCAN_enablePower)
                  00007708    00000018     ti_msp_dl_config.o (.text.DL_MCAN_reset)
                  00007720    00000018     driverlib.a : dl_mcan.o (.text.DL_MCAN_setOpMode)
                  00007738    00000018     ti_msp_dl_config.o (.text.DL_SYSCTL_setBORThreshold)
                  00007750    00000018     timer.o (.text.DL_Timer_clearInterruptStatus)
                  00007768    00000018     ti_msp_dl_config.o (.text.DL_Timer_enablePower)
                  00007780    00000018     ti_msp_dl_config.o (.text.DL_Timer_enableShadowFeatures)
                  00007798    00000018     ti_msp_dl_config.o (.text.DL_Timer_reset)
                  000077b0    00000018     driverlib.a : dl_timer.o (.text.DL_Timer_setCaptureCompareOutCtl)
                  000077c8    00000018     ti_msp_dl_config.o (.text.DL_UART_enableDMAReceiveEvent)
                  000077e0    00000018     ti_msp_dl_config.o (.text.DL_UART_enableDMATransmitEvent)
                  000077f8    00000018     ti_msp_dl_config.o (.text.DL_UART_enableFIFOs)
                  00007810    00000018     ti_msp_dl_config.o (.text.DL_UART_enablePower)
                  00007828    00000018     ti_msp_dl_config.o (.text.DL_UART_reset)
                  00007840    00000018     task_scheduler.o (.text.Task_Done)
                  00007858    00000016     bsp_key.o (.text.DL_GPIO_readPins)
                  0000786e    00000016     bsp_oled.o (.text.DL_GPIO_readPins)
                  00007884    00000016     ultrasonic.o (.text.DL_GPIO_readPins)
                  0000789a    00000016     ti_msp_dl_config.o (.text.DL_UART_enable)
                  000078b0    00000016     bsp_key.o (.text.KEY_Init)
                  000078c6    00000016     JY901.o (.text._jy_write)
                  000078dc    00000014     bsp_oled.o (.text.DL_GPIO_clearPins)
                  000078f0    00000014     ti_msp_dl_config.o (.text.DL_GPIO_clearPins)
                  00007904    00000014     ultrasonic.o (.text.DL_GPIO_clearPins)
                  00007918    00000014     bsp_oled.o (.text.DL_I2C_getControllerStatus)
                  0000792c    00000014     ti_msp_dl_config.o (.text.DL_I2C_resetControllerTransfer)
                  00007940    00000014     driverlib.a : dl_mcan.o (.text.DL_MCAN_clearIntrStatus)
                  00007954    00000014     bsp_CAN.o (.text.DL_MCAN_getPendingInterrupt)
                  00007968    00000014     ti_msp_dl_config.o (.text.DL_SYSCTL_disableSYSPLL)
                  0000797c    00000014     ti_msp_dl_config.o (.text.DL_SYSCTL_enableSYSPLL)
                  00007990    00000014     timer.o (.text.DL_Timer_disableClock)
                  000079a4    00000014     ti_msp_dl_config.o (.text.DL_Timer_enableClock)
                  000079b8    00000014     timer.o (.text.DL_Timer_enableClock)
                  000079cc    00000014     ti_msp_dl_config.o (.text.DL_Timer_setCCPDirection)
                  000079e0    00000014     ti_msp_dl_config.o (.text.SYSCFG_DL_DMA_init)
                  000079f4    00000014     libclang_rt.builtins.a : aeabi_uldivmod.S.obj (.text.__aeabi_uldivmod)
                  00007a08    00000012     bsp_key.o (.text.DL_GPIO_getPendingInterrupt)
                  00007a1a    00000012     ti_msp_dl_config.o (.text.DL_MCAN_enableModuleClock)
                  00007a2c    00000012     timer.o (.text.DL_Timer_getPendingInterrupt)
                  00007a3e    00000012     bsp_UART.o (.text.DL_UART_getPendingInterrupt)
                  00007a50    00000012     bsp_UART1.o (.text.DL_UART_getPendingInterrupt)
                  00007a62    00000012     driverlib.a : dl_uart.o (.text.DL_UART_setClockConfig)
                  00007a74    00000012     libc.a : memcpy16.S.obj (.text:TI_memcpy_small)
                  00007a86    00000012            : copy_decompress_none.c.obj (.text:decompress:none)
                  00007a98    00000010     driverlib.a : dl_mcan.o (.text.DL_MCAN_getOpMode)
                  00007aa8    00000010                 : dl_mcan.o (.text.DL_MCAN_isMemInitDone)
                  00007ab8    00000010     ti_msp_dl_config.o (.text.DL_SYSCTL_disableHFXT)
                  00007ac8    00000010     ti_msp_dl_config.o (.text.DL_SYSCTL_isFCCDone)
                  00007ad8    00000010     ti_msp_dl_config.o (.text.DL_SYSCTL_startFCC)
                  00007ae8    00000010     timer.o (.text.DL_Timer_getTimerCount)
                  00007af8    00000010     driverlib.a : dl_timer.o (.text.DL_Timer_setCaptureCompareValue)
                  00007b08    00000010     ti_msp_dl_config.o (.text.SYSCFG_DL_SYSTICK_init)
                  00007b18    00000010     Task.o (.text.User_Init)
                  00007b28    00000010     libc.a : copy_zero_init.c.obj (.text:decompress:ZI)
                  00007b38    0000000e     chasis.o (.text.chasis_stop)
                  00007b46    0000000e     libc.a : memset16.S.obj (.text:TI_memset_small)
                  00007b54    0000000c     driverlib.a : dl_mcan.o (.text.DL_MCAN_getIntrStatus)
                  00007b60    0000000c     ti_msp_dl_config.o (.text.DL_SYSCTL_getClockStatus)
                  00007b6c    0000000c     ti_msp_dl_config.o (.text.DL_SYSCTL_readFCC)
                  00007b78    0000000c     Task.o (.text.Key_A18_Pressed)
                  00007b84    0000000c     Task.o (.text.Key_B21_Pressed)
                  00007b90    0000000c     libclang_rt.builtins.a : aeabi_memset.S.obj (.text.__aeabi_memclr)
                  00007b9c    0000000a     driverlib.a : dl_common.o (.text.DL_Common_delayCycles)
                  00007ba6    0000000a     JY901.o (.text._jy_delay)
                  00007bb0    0000000a     JY901.o (.text._jy_reg_cb)
                  00007bba    00000002     --HOLE-- [fill = 0]
                  00007bbc    00000008     libclang_rt.builtins.a : aeabi_memcpy.S.obj (.text.__aeabi_memcpy)
                  00007bc4    00000006     libc.a : exit.c.obj (.text:abort)
                  00007bca    00000004     startup_mspm0g350x_ticlang.o (.text.Default_Handler)
                  00007bce    00000004     libsysbm.a : hostexit.c.obj (.text.HOSTexit)
                  00007bd2    00000004     startup_mspm0g350x_ticlang.o (.text.Reset_Handler)
                  00007bd6    00000002     --HOLE-- [fill = 0]
                  00007bd8    00000010     libc.a : boot_cortex_m.c.obj (.tramp._c_int00_noargs.1)
                  00007be8    00000004            : pre_init.c.obj (.text._system_pre_init)
                  00007bec    00000004     --HOLE-- [fill = 0]

.cinit     0    000089c0    00000170     
                  000089c0    00000147     (.cinit..data.load) [load image, compression = lzss]
                  00008b07    00000001     --HOLE-- [fill = 0]
                  00008b08    0000000c     (__TI_handler_table)
                  00008b14    00000008     (.cinit..bss.load) [load image, compression = zero_init]
                  00008b1c    00000010     (__TI_cinit_table)
                  00008b2c    00000004     --HOLE-- [fill = 0]

.rodata    0    00007bf0    00000dd0     
                  00007bf0    000005f0     bsp_oled.o (.rodata.asc2_1608)
                  000081e0    00000228     bsp_oled.o (.rodata.asc2_0806)
                  00008408    00000100     wit_c_sdk.o (.rodata.__auchCRCHi)
                  00008508    00000100     wit_c_sdk.o (.rodata.__auchCRCLo)
                  00008608    00000060     ti_msp_dl_config.o (.rodata.gMCAN0MsgRAMConfigParams)
                  00008668    00000040     driverlib.a : dl_mcan.o (.rodata..L__const.DL_MCAN_getDataSize.dataSize)
                  000086a8    00000034     ti_msp_dl_config.o (.rodata.gMCAN0InitParams)
                  000086dc    00000028     ti_msp_dl_config.o (.rodata.gSYSPLLConfig)
                  00008704    00000020     driverlib.a : dl_mcan.o (.rodata.cst32)
                  00008724    00000020     ti_msp_dl_config.o (.rodata.gMCAN0BitTimes)
                  00008744    00000018     ti_msp_dl_config.o (.rodata.gDMA_CH0Config)
                  0000875c    00000018     ti_msp_dl_config.o (.rodata.gDMA_CH1Config)
                  00008774    00000018     ti_msp_dl_config.o (.rodata.gDMA_CH2Config)
                  0000878c    00000018     ti_msp_dl_config.o (.rodata.gDMA_CH3Config)
                  000087a4    00000014     timer.o (.rodata..L__const.Timestamp_Init.tmrCfg)
                  000087b8    00000014     ti_msp_dl_config.o (.rodata.gUS_TIMERTimerConfig)
                  000087cc    00000010     ti_msp_dl_config.o (.rodata.gMCAN0ExtFiltelem)
                  000087dc    00000010     ti_msp_dl_config.o (.rodata.gMCAN0StdFiltelem)
                  000087ec    00000010     chasis.o (.rodata.openloop_ratio)
                  000087fc    0000000f     task_scheduler.o (.rodata.str1.12698780283469048528.1)
                  0000880b    0000000e     task_scheduler.o (.rodata.str1.2657894803344293859.1)
                  00008819    0000000d     Task.o (.rodata.str1.16258957891566433532.1)
                  00008826    0000000c     task_scheduler.o (.rodata.str1.14606958373863359431.1)
                  00008832    0000000c     Task.o (.rodata.str1.7848802165208324070.1)
                  0000883e    0000000b     task_scheduler.o (.rodata.str1.13768897686556393344.1)
                  00008849    0000000b     Task.o (.rodata.str1.18250950699638100492.1)
                  00008854    0000000b     Task.o (.rodata.str1.3814462214086099351.1)
                  0000885f    0000000b     task_scheduler.o (.rodata.str1.9247241511803337348.1)
                  0000886a    0000000b     task_scheduler.o (.rodata.str1.9855678927950593766.1)
                  00008875    00000001     task_scheduler.o (.rodata.str1.9784223496667871455.1)
                  00008876    0000000a     ti_msp_dl_config.o (.rodata.gUART_0Config)
                  00008880    0000000a     ti_msp_dl_config.o (.rodata.gUART_1Config)
                  0000888a    0000000a     task_scheduler.o (.rodata.str1.15638319084808577004.1)
                  00008894    0000000a     task_scheduler.o (.rodata.str1.7939893941929394660.1)
                  0000889e    00000009     task_scheduler.o (.rodata.str1.14699949538115772633.1)
                  000088a7    00000009     task_scheduler.o (.rodata.str1.15138029808797558358.1)
                  000088b0    00000009     task_scheduler.o (.rodata.str1.16400217066248172146.1)
                  000088b9    00000009     task_scheduler.o (.rodata.str1.17557591748756409378.1)
                  000088c2    00000009     task_scheduler.o (.rodata.str1.17984259232970945524.1)
                  000088cb    00000009     task_scheduler.o (.rodata.str1.2035165105665184857.1)
                  000088d4    00000009     task_scheduler.o (.rodata.str1.2160916131609573578.1)
                  000088dd    00000003     ti_msp_dl_config.o (.rodata.gFRONT_OUTClockConfig)
                  000088e0    00000008     ultrasonic.o (.rodata._echo_iidx)
                  000088e8    00000008     ultrasonic.o (.rodata._echo_pin)
                  000088f0    00000008     ultrasonic.o (.rodata._trig_pin)
                  000088f8    00000008     ti_msp_dl_config.o (.rodata.gFRONT_OUTConfig)
                  00008900    00000008     ti_msp_dl_config.o (.rodata.gRL_OUTConfig)
                  00008908    00000008     ti_msp_dl_config.o (.rodata.gRR_OUTConfig)
                  00008910    00000008     Task.o (.rodata.str1.6095027432129614026.1)
                  00008918    00000008     Task.o (.rodata.str1.9940982917155666079.1)
                  00008920    00000007     Task.o (.rodata.str1.14140538058437403931.1)
                  00008927    00000007     task_scheduler.o (.rodata.str1.14552388435526194663.1)
                  0000892e    00000007     Task.o (.rodata.str1.18040217389239092422.1)
                  00008935    00000007     task_scheduler.o (.rodata.str1.18069038080357984115.1)
                  0000893c    00000007     task_scheduler.o (.rodata.str1.4916143694647286702.1)
                  00008943    00000007     Task.o (.rodata.str1.5354678376744284297.1)
                  0000894a    00000006     task_scheduler.o (.rodata.str1.14100310158706606776.1)
                  00008950    00000006     task_scheduler.o (.rodata.str1.14190357177579510289.1)
                  00008956    00000006     Task.o (.rodata.str1.2519603985286566818.1)
                  0000895c    00000006     task_scheduler.o (.rodata.str1.3123915140485391185.1)
                  00008962    00000006     task_scheduler.o (.rodata.str1.4577691884733283733.1)
                  00008968    00000005     task_scheduler.o (.rodata.str1.10506625049490768188.1)
                  0000896d    00000005     Task.o (.rodata.str1.13875185509114325111.1)
                  00008972    00000005     Task.o (.rodata.str1.444840832391758400.1)
                  00008977    00000005     Task.o (.rodata.str1.5450046856251476239.1)
                  0000897c    00000004     ti_msp_dl_config.o (.rodata.gMCAN0ClockConf)
                  00008980    00000004     Task.o (.rodata.str1.1792698621017128999.1)
                  00008984    00000004     Task.o (.rodata.str1.4718047238605356768.1)
                  00008988    00000004     Task.o (.rodata.str1.7571589341706371819.1)
                  0000898c    00000004     Task.o (.rodata.str1.99587616205557558.1)
                  00008990    00000003     ti_msp_dl_config.o (.rodata.gLFCLKConfig)
                  00008993    00000003     ti_msp_dl_config.o (.rodata.gRL_OUTClockConfig)
                  00008996    00000003     ti_msp_dl_config.o (.rodata.gRR_OUTClockConfig)
                  00008999    00000003     ti_msp_dl_config.o (.rodata.gUS_TIMERClockConfig)
                  0000899c    00000003     Task.o (.rodata.str1.10398233836178496103.1)
                  0000899f    00000003     task_scheduler.o (.rodata.str1.10531343933328738940.1)
                  000089a2    00000003     Task.o (.rodata.str1.11758502042625606706.1)
                  000089a5    00000003     task_scheduler.o (.rodata.str1.16646981383022644586.1)
                  000089a8    00000003     task_scheduler.o (.rodata.str1.18076406348189272724.1)
                  000089ab    00000003     task_scheduler.o (.rodata.str1.18217560696470349137.1)
                  000089ae    00000003     task_scheduler.o (.rodata.str1.408152790401024242.1)
                  000089b1    00000002     ti_msp_dl_config.o (.rodata.gI2C_OLEDClockConfig)
                  000089b3    00000002     ti_msp_dl_config.o (.rodata.gUART_0ClockConfig)
                  000089b5    00000002     ti_msp_dl_config.o (.rodata.gUART_1ClockConfig)
                  000089b7    00000002     task_scheduler.o (.rodata.str1.14662535846695041591.1)
                  000089b9    00000002     Task.o (.rodata.str1.4421610984764061377.1)
                  000089bb    00000002     Task.o (.rodata.str1.9426489877831215769.1)
                  000089bd    00000003     --HOLE-- [fill = 0]

.init_array 
*          0    00000000    00000000     UNINITIALIZED

.binit     0    00000000    00000000     

.bss       0    20200000    000006cc     UNINITIALIZED
                  20200000    00000120     (.common:sReg)
                  20200120    00000100     wit_c_sdk.o (.bss.s_ucWitDataBuff)
                  20200220    000000bc     (.common:gFRONT_OUTBackup)
                  202002dc    000000bc     (.common:gRL_OUTBackup)
                  20200398    000000a0     (.common:gRR_OUTBackup)
                  20200438    00000098     (.common:gMCAN0Backup)
                  202004d0    00000064     (.common:uart1_rx_buff)
                  20200534    00000064     (.common:uart_rx_buff)
                  20200598    00000050     ultrasonic.o (.bss.g_us)
                  202005e8    00000050     Task.o (.bss.once_flag)
                  20200638    00000034     chasis.o (.bss.trap)
                  2020066c    00000018     task_scheduler.o (.bss.menu_stack)
                  20200684    00000014     Task.o (.bss.while_task.samples0)
                  20200698    00000014     Task.o (.bss.while_task.samples1)
                  202006ac    00000004     chasis.o (.bss.brake_linear_dvx)
                  202006b0    00000004     chasis.o (.bss.brake_linear_dvy)
                  202006b4    00000004     chasis.o (.bss.brake_linear_dwz)
                  202006b8    00000004     chasis.o (.bss.brake_linear_elapsed)
                  202006bc    00000004     chasis.o (.bss.brake_linear_time_ms)
                  202006c0    00000004     (.common:jy901_yaw)
                  202006c4    00000004     (.common:x_origin)
                  202006c8    00000004     (.common:y_origin)

.data      0    202006cc    000004a6     UNINITIALIZED
                  202006cc    00000118     chasis.o (.data.user_chasis)
                  202007e4    00000070     task_scheduler.o (.data.menu_gimbal_items)
                  20200854    00000060     task_scheduler.o (.data.menu_debug_items)
                  202008b4    00000040     task_scheduler.o (.data.menu_chasis_items)
                  202008f4    00000040     task_scheduler.o (.data.menu_q1_items)
                  20200934    00000030     task_scheduler.o (.data.menu_question_items)
                  20200964    00000030     task_scheduler.o (.data.menu_t1_items)
                  20200994    00000030     task_scheduler.o (.data.menu_t2_items)
                  202009c4    00000030     task_scheduler.o (.data.menu_t3_items)
                  202009f4    00000020     task_scheduler.o (.data.menu_gyro_items)
                  20200a14    00000020     task_scheduler.o (.data.menu_q2_items)
                  20200a34    00000020     task_scheduler.o (.data.menu_root_items)
                  20200a54    00000014     Task.o (.data.SET_param_names)
                  20200a68    00000014     Task.o (.data.g_q1_t1)
                  20200a7c    00000014     Task.o (.data.g_q1_t2)
                  20200a90    00000014     Task.o (.data.g_q1_t3)
                  20200aa4    00000010     bsp_PWM.o (.data.g_motor)
                  20200ab4    00000010     task_scheduler.o (.data.menu_root)
                  20200ac4    00000010     chasis.o (.data.motor_test_target_rpm)
                  20200ad4    00000008     bsp_key.o (.data.key_tick)
                  20200adc    00000004     task_scheduler.o (.data.countdown_start)
                  20200ae0    00000004     task_scheduler.o (.data.cur_menu)
                  20200ae4    00000004     ultrasonic.o (.data.g_dbg_isr_cnt)
                  20200ae8    00000004     ultrasonic.o (.data.g_dbg_last_iidx)
                  20200aec    00000004     ultrasonic.o (.data.g_dbg_trig_cnt)
                  20200af0    00000004     empty.o (.data.g_tick)
                  20200af4    00000004     timer.o (.data.g_timer_overflow)
                  20200af8    00000004     Task.o (.data.g_us_dist0)
                  20200afc    00000004     Task.o (.data.g_us_dist1)
                  20200b00    00000004     Task.o (.data.g_us_pulse0)
                  20200b04    00000004     Task.o (.data.g_us_pulse1)
                  20200b08    00000004     chasis.o (.data.motor_invert)
                  20200b0c    00000004     chasis.o (.data.move_timer_ms)
                  20200b10    00000004     wit_c_sdk.o (.data.p_WitCanWriteFunc)
                  20200b14    00000004     wit_c_sdk.o (.data.p_WitDelaymsFunc)
                  20200b18    00000004     wit_c_sdk.o (.data.p_WitI2cWriteFunc)
                  20200b1c    00000004     wit_c_sdk.o (.data.p_WitRegUpdateCbFunc)
                  20200b20    00000004     wit_c_sdk.o (.data.p_WitSerialWriteFunc)
                  20200b24    00000004     task_scheduler.o (.data.pending_task)
                  20200b28    00000004     wit_c_sdk.o (.data.s_uiProtoclo)
                  20200b2c    00000004     wit_c_sdk.o (.data.s_uiReadRegIndex)
                  20200b30    00000004     wit_c_sdk.o (.data.s_uiWitDataCnt)
                  20200b34    00000004     Task.o (.data.system_mode)
                  20200b38    00000004     Task.o (.data.while_task.last_d0)
                  20200b3c    00000004     Task.o (.data.while_task.last_d1)
                  20200b40    00000002     ultrasonic.o (.data.g_dbg_state)
                  20200b42    00000002     bsp_UART.o (.data.rx_size)
                  20200b44    00000002     bsp_UART1.o (.data.uart1_rx_size)
                  20200b46    00000001     bsp_key.o (.data.KEY_Poll.b21_long_fired)
                  20200b47    00000001     chasis.o (.data.brake_hold)
                  20200b48    00000001     chasis.o (.data.brake_linear_active)
                  20200b49    00000001     chasis.o (.data.chasis_braked)
                  20200b4a    00000001     chasis.o (.data.chasis_trapezoid_done)
                  20200b4b    00000001     task_scheduler.o (.data.cursor)
                  20200b4c    00000001     task_scheduler.o (.data.flag_enter)
                  20200b4d    00000001     bsp_key.o (.data.flag_long_b21)
                  20200b4e    00000001     task_scheduler.o (.data.flag_next)
                  20200b4f    00000001     empty.o (.data.g_flag_100hz)
                  20200b50    00000001     empty.o (.data.init_ok)
                  20200b51    00000001     task_scheduler.o (.data.menu_sp)
                  20200b52    00000001     chasis.o (.data.motor_test_mode)
                  20200b53    00000001     chasis.o (.data.move_state)
                  20200b54    00000001     task_scheduler.o (.data.need_draw)
                  20200b55    00000001     Task.o (.data.one_hundured_ms_callback.us_cnt)
                  20200b56    00000001     Task.o (.data.param_editor.cur_digit)
                  20200b57    00000001     Task.o (.data.param_editor.cur_param)
                  20200b58    00000001     Task.o (.data.param_editor.finished)
                  20200b59    00000001     Task.o (.data.param_editor.need_redraw)
                  20200b5a    00000001     wit_c_sdk.o (.data.s_ucAddr)
                  20200b5b    00000001     task_scheduler.o (.data.scroll)
                  20200b5c    00000001     bsp_UART1.o (.data.uart1_isIDLE.rx_last_size)
                  20200b5d    00000001     bsp_UART1.o (.data.uart1_isIDLE.stable_count)
                  20200b5e    00000001     bsp_UART1.o (.data.uart1_rx_dma_complete_flag)
                  20200b5f    00000001     bsp_UART1.o (.data.uart1_rx_length)
                  20200b60    00000001     bsp_UART1.o (.data.uart1_tx_complete_flag)
                  20200b61    00000001     bsp_UART1.o (.data.uart1_tx_dma_complete_flag)
                  20200b62    00000001     bsp_UART.o (.data.uart_isIDLE.rx_last_size)
                  20200b63    00000001     bsp_UART.o (.data.uart_isIDLE.stable_count)
                  20200b64    00000001     bsp_UART.o (.data.uart_rx_dma_complete_flag)
                  20200b65    00000001     bsp_UART.o (.data.uart_rx_length)
                  20200b66    00000001     bsp_UART.o (.data.uart_tx_complete_flag)
                  20200b67    00000001     bsp_UART.o (.data.uart_tx_dma_complete_flag)
                  20200b68    00000001     Task.o (.data.while_task.done)
                  20200b69    00000001     Task.o (.data.while_task.last_idx)
                  20200b6a    00000001     Task.o (.data.while_task.sample_idx)
                  20200b6b    00000001     Task.o (.data.while_task.step.10)
                  20200b6c    00000001     Task.o (.data.while_task.step.11)
                  20200b6d    00000001     Task.o (.data.while_task.step.1)
                  20200b6e    00000001     Task.o (.data.while_task.step.2)
                  20200b6f    00000001     Task.o (.data.while_task.step.8)
                  20200b70    00000001     Task.o (.data.while_task.step.9)
                  20200b71    00000001     Task.o (.data.while_task.step)

.stack     0    20207e00    00000200     UNINITIALIZED
                  20207e00    00000004     libc.a : boot_cortex_m.c.obj (.stack)
                  20207e04    000001fc     --HOLE--

__llvm_prf_cnts 
*          0    20200000    00000000     UNINITIALIZED

__llvm_prf_bits 
*          0    20200000    00000000     UNINITIALIZED

MODULE SUMMARY

       Module                         code    ro data   rw data
       ------                         ----    -------   -------
    .\
       ti_msp_dl_config.o             4600    437       688    
       empty.o                        412     0         6      
       startup_mspm0g350x_ticlang.o   8       192       0      
    +--+------------------------------+-------+---------+---------+
       Total:                         5020    629       694    
                                                               
    .\User\bsp\Src\
       Task.o                         8018    131       251    
       bsp_oled.o                     2098    2072      0      
       chasis.o                       2710    16        382    
       wit_c_sdk.o                    1622    512       577    
       task_scheduler.o               912     225       682    
       ultrasonic.o                   1126    24        94     
       bsp_PWM.o                      868     0         16     
       bsp_UART1.o                    718     0         108    
       bsp_UART.o                     710     0         108    
       bsp_key.o                      494     0         10     
       bsp_CAN.o                      400     0         0      
       timer.o                        358     20        4      
       ZDT_Driver.o                   328     0         0      
       ZDT_CAN.o                      266     0         0      
       gimbal.o                       202     0         0      
       JY901.o                        138     0         4      
    +--+------------------------------+-------+---------+---------+
       Total:                         20968   3000      2236   
                                                               
    E:/TI/CCS/mspm0_sdk_2_10_00_04/source/ti/driverlib/lib/ticlang/m0p/mspm0g1x0x_g3x0x/driverlib.a
       dl_mcan.o                      2144    96        0      
       dl_timer.o                     608     0         0      
       dl_sysctl_mspm0g1x0x_g3x0x.o   512     0         0      
       dl_i2c.o                       132     0         0      
       dl_uart.o                      90      0         0      
       dl_dma.o                       76      0         0      
       dl_common.o                    10      0         0      
    +--+------------------------------+-------+---------+---------+
       Total:                         3572    96        0      
                                                               
    E:\TI\CCS\ccs\tools\compiler\ti-cgt-armllvm_4.0.4.LTS\lib\armv6m-ti-none-eabi/c/libc.a
       copy_decompress_lzss.c.obj     124     0         0      
       autoinit.c.obj                 60      0         0      
       boot_cortex_m.c.obj            56      0         0      
       copy_decompress_none.c.obj     18      0         0      
       memcpy16.S.obj                 18      0         0      
       copy_zero_init.c.obj           16      0         0      
       memset16.S.obj                 14      0         0      
       exit.c.obj                     6       0         0      
       pre_init.c.obj                 4       0         0      
    +--+------------------------------+-------+---------+---------+
       Total:                         316     0         0      
                                                               
    E:\TI\CCS\ccs\tools\compiler\ti-cgt-armllvm_4.0.4.LTS\lib\armv6m-ti-none-eabi/c/libsysbm.a
       hostexit.c.obj                 4       0         0      
    +--+------------------------------+-------+---------+---------+
       Total:                         4       0         0      
                                                               
    E:\TI\CCS\ccs\tools\compiler\ti-cgt-armllvm_4.0.4.LTS\lib\armv6m-ti-none-eabi/libclang_rt.builtins.a
       comparedf2.c.obj               220     0         0      
       addsf3.S.obj                   216     0         0      
       udivmoddi4.S.obj               162     0         0      
       mulsf3.S.obj                   140     0         0      
       divsf3.S.obj                   130     0         0      
       comparesf2.S.obj               118     0         0      
       aeabi_dcmp.S.obj               98      0         0      
       aeabi_fcmp.S.obj               98      0         0      
       aeabi_uidivmod.S.obj           64      0         0      
       floatsisf.S.obj                60      0         0      
       muldsi3.S.obj                  58      0         0      
       fixsfsi.S.obj                  56      0         0      
       fixunssfsi.S.obj               50      0         0      
       floatunsisf.S.obj              40      0         0      
       floatunsidf.S.obj              36      0         0      
       ashldi3.S.obj                  30      0         0      
       aeabi_uldivmod.S.obj           20      0         0      
       aeabi_memset.S.obj             12      0         0      
       aeabi_memcpy.S.obj             8       0         0      
       aeabi_div0.c.obj               4       0         0      
    +--+------------------------------+-------+---------+---------+
       Total:                         1620    0         0      
                                                               
       Stack:                         0       0         512    
       Linker Generated:              0       363       0      
    +--+------------------------------+-------+---------+---------+
       Grand Total:                   31500   4088      3442   


LINKER GENERATED COPY TABLES

__TI_cinit_table @ 00008b1c records: 2, size/record: 8, table size: 16
	.data: load addr=000089c0, load size=00000147 bytes, run addr=202006cc, run size=000004a6 bytes, compression=lzss
	.bss: load addr=00008b14, load size=00000008 bytes, run addr=20200000, run size=000006cc bytes, compression=zero_init


LINKER GENERATED HANDLER TABLE

__TI_handler_table @ 00008b08 records: 3, size/record: 4, table size: 12
	index: 0, handler: __TI_decompress_lzss
	index: 1, handler: __TI_decompress_none
	index: 2, handler: __TI_zero_init


FAR CALL TRAMPOLINES

callee name               trampoline name
   callee addr  tramp addr   call addr  call info
--------------  -----------  ---------  ----------------
_c_int00_noargs           $Tramp$TT$L$PI$$_c_int00_noargs
   00006ec1     00007bd8     00007bd2   startup_mspm0g350x_ticlang.o (.text.Reset_Handler)

[1 trampolines]
[1 trampoline calls]


GLOBAL SYMBOLS: SORTED ALPHABETICALLY BY Name 

address   name                                 
-------   ----                                 
00007bcb  ADC0_IRQHandler                      
00007bcb  ADC1_IRQHandler                      
00007bcb  AES_IRQHandler                       
00007bce  C$$EXIT                              
00006289  CANFD0_IRQHandler                    
0000526d  CAN_Rx_FIFO0_New_Message_Callback    
0000496d  CAN_send_ext_frame                   
00007bcb  DAC0_IRQHandler                      
00007b9d  DL_Common_delayCycles                
00006031  DL_DMA_initChannel                   
00005c35  DL_I2C_fillControllerTXFIFO          
00006fa7  DL_I2C_setClockConfig                
000068a1  DL_MCAN_TXBufAddReq                  
00006b25  DL_MCAN_TXBufTransIntrEnable         
00006b51  DL_MCAN_addExtMsgIDFilter            
00006b7d  DL_MCAN_addStdMsgIDFilter            
00007941  DL_MCAN_clearIntrStatus              
00007329  DL_MCAN_enableIntr                   
00007345  DL_MCAN_enableIntrLine               
00007b55  DL_MCAN_getIntrStatus                
00007a99  DL_MCAN_getOpMode                    
000062cd  DL_MCAN_getRevisionId                
00006831  DL_MCAN_getRxFIFOStatus              
000070c5  DL_MCAN_getTxFIFOQueStatus           
00004051  DL_MCAN_init                         
00007aa9  DL_MCAN_isMemInitDone                
0000217d  DL_MCAN_msgRAMConfig                 
000033c1  DL_MCAN_readMsgRam                   
00007361  DL_MCAN_selectIntrLine               
00004209  DL_MCAN_setBitTime                   
00007015  DL_MCAN_setClockConfig               
000068d5  DL_MCAN_setExtIDAndMask              
00007721  DL_MCAN_setOpMode                    
000039d9  DL_MCAN_writeMsgRam                  
000063dd  DL_MCAN_writeRxFIFOAck               
0000737d  DL_SYSCTL_configFCC                  
0000412d  DL_SYSCTL_configSYSPLL               
000058c5  DL_SYSCTL_setHFCLKSourceHFXTParams   
00005a55  DL_SYSCTL_setLFCLKSourceLFXT         
00006311  DL_SYSCTL_switchMCLKfromSYSOSCtoHSCLK
000036e1  DL_Timer_initFourCCPWMMode           
000037e5  DL_Timer_initTimerMode               
00007425  DL_Timer_setCaptCompUpdateMethod     
000077b1  DL_Timer_setCaptureCompareOutCtl     
00007af9  DL_Timer_setCaptureCompareValue      
00007441  DL_Timer_setClockConfig              
000061f9  DL_UART_init                         
00007a63  DL_UART_setClockConfig               
00007bcb  DMA_IRQHandler                       
00007bcb  Default_Handler                      
000061ad  Emm_V5_En_Control                    
0000641d  Emm_V5_Origin_Set_O                  
0000655d  Emm_V5_Origin_Trigger_Return         
000050eb  Emm_V5_Pos_Control                   
00007bcb  GROUP0_IRQHandler                    
00005929  GROUP1_IRQHandler                    
00007bcf  HOSTexit                             
00007bcb  HardFault_Handler                    
00007bcb  I2C0_IRQHandler                      
00007bcb  I2C1_IRQHandler                      
000065d9  JY901_Init                           
0000705d  JY901_Update                         
000078b1  KEY_Init                             
00003d99  KEY_Poll                             
00007b79  Key_A18_Pressed                      
000035d7  Key_B21_Long                         
00007b85  Key_B21_Pressed                      
00006615  Menu_Init                            
00003bbd  Menu_Run                             
00007bcb  NMI_Handler                          
000057f1  OLED_Clear                           
000032ad  OLED_Init                            
00006651  OLED_Set_Pos                         
00003195  OLED_ShowChar                        
000038e1  OLED_ShowNum                         
00005635  OLED_ShowString                      
00004b69  OLED_WR_Byte                         
00007bcb  PendSV_Handler                       
00007bcb  RTC_IRQHandler                       
00007bd3  Reset_Handler                        
00007bcb  SPI0_IRQHandler                      
00007bcb  SPI1_IRQHandler                      
00007bcb  SVC_Handler                          
00006a35  SYSCFG_DL_DMA_CH0_init               
00006a65  SYSCFG_DL_DMA_CH1_init               
00006a95  SYSCFG_DL_DMA_CH2_init               
00006ac5  SYSCFG_DL_DMA_CH3_init               
000079e1  SYSCFG_DL_DMA_init                   
00003e81  SYSCFG_DL_FRONT_OUT_init             
0000298d  SYSCFG_DL_GPIO_init                  
00005cf1  SYSCFG_DL_I2C_OLED_init              
00003cad  SYSCFG_DL_MCAN0_init                 
00004c01  SYSCFG_DL_RL_OUT_init                
00004acd  SYSCFG_DL_RR_OUT_init                
00003f69  SYSCFG_DL_SYSCTL_SYSPLL_init         
000052e9  SYSCFG_DL_SYSCTL_init                
00007b09  SYSCFG_DL_SYSTICK_init               
0000545d  SYSCFG_DL_UART_0_init                
000054d5  SYSCFG_DL_UART_1_init                
00006909  SYSCFG_DL_US_TIMER_init              
00005ab5  SYSCFG_DL_init                       
000047e5  SYSCFG_DL_initPower                  
00004ed9  SysTick_Handler                      
00007bcb  TIMA0_IRQHandler                     
00007bcb  TIMA1_IRQHandler                     
00007bcb  TIMG0_IRQHandler                     
00006ba9  TIMG12_IRQHandler                    
00007bcb  TIMG6_IRQHandler                     
00007bcb  TIMG7_IRQHandler                     
00007bcb  TIMG8_IRQHandler                     
00007a75  TI_memcpy_small                      
00007b47  TI_memset_small                      
00006241  Task_Cleanup                         
00007841  Task_Done                            
0000668d  Timestamp_GetTicks                   
00005da1  Timestamp_Init                       
0000516d  UART0_IRQHandler                     
000051ed  UART1_IRQHandler                     
0000645d  UART1_Rx_DMA_ToIdle_Callback         
00007bcb  UART2_IRQHandler                     
00007bcb  UART3_IRQHandler                     
00002d25  UART_Rx_DMA_ToIdle_Callback          
000025a5  Ultrasonic_GPIOB_ISR                 
00006355  Ultrasonic_GetDistance_mm            
0000693d  Ultrasonic_GetPulseWidth_us          
00005d49  Ultrasonic_Init                      
0000649d  Ultrasonic_IsDataReady               
000048a9  Ultrasonic_Trigger                   
00007b19  User_Init                            
00006bd5  WitDelayMsRegister                   
000064dd  WitInit                              
00006c01  WitRegisterCallBack                  
00002391  WitSerialDataIn                      
00006c2d  WitSerialWriteRegister               
00002ec1  WitWriteReg                          
20208000  __STACK_END                          
00000200  __STACK_SIZE                         
00000000  __TI_ATRegion0_region_sz             
00000000  __TI_ATRegion0_src_addr              
00000000  __TI_ATRegion0_trg_addr              
00000000  __TI_ATRegion1_region_sz             
00000000  __TI_ATRegion1_src_addr              
00000000  __TI_ATRegion1_trg_addr              
00000000  __TI_ATRegion2_region_sz             
00000000  __TI_ATRegion2_src_addr              
00000000  __TI_ATRegion2_trg_addr              
00008b1c  __TI_CINIT_Base                      
00008b2c  __TI_CINIT_Limit                     
00008b2c  __TI_CINIT_Warm                      
00008b08  __TI_Handler_Table_Base              
00008b14  __TI_Handler_Table_Limit             
00006741  __TI_auto_init_nobinit_nopinit       
000053e1  __TI_decompress_lzss                 
00007a87  __TI_decompress_none                 
ffffffff  __TI_pprof_out_hndl                  
ffffffff  __TI_prof_data_size                  
ffffffff  __TI_prof_data_start                 
00000000  __TI_static_base__                   
00007b29  __TI_zero_init                       
00004573  __addsf3                             
0000598d  __aeabi_dcmpeq                       
000059c9  __aeabi_dcmpge                       
000059dd  __aeabi_dcmpgt                       
000059b5  __aeabi_dcmple                       
000059a1  __aeabi_dcmplt                       
00006869  __aeabi_f2iz                         
00006971  __aeabi_f2uiz                        
00004573  __aeabi_fadd                         
000059f1  __aeabi_fcmpeq                       
00005a2d  __aeabi_fcmpge                       
00005a41  __aeabi_fcmpgt                       
00005a19  __aeabi_fcmple                       
00005a05  __aeabi_fcmplt                       
00005069  __aeabi_fdiv                         
00004dc1  __aeabi_fmul                         
00004569  __aeabi_fsub                         
000066c9  __aeabi_i2f                          
000039d7  __aeabi_idiv0                        
00004acb  __aeabi_ldiv0                        
00007145  __aeabi_llsl                         
00007b91  __aeabi_memclr                       
00007b91  __aeabi_memclr4                      
00007b91  __aeabi_memclr8                      
00007bbd  __aeabi_memcpy                       
00007bbd  __aeabi_memcpy4                      
00007bbd  __aeabi_memcpy8                      
00007081  __aeabi_ui2d                         
00006e99  __aeabi_ui2f                         
0000651d  __aeabi_uidiv                        
0000651d  __aeabi_uidivmod                     
000079f5  __aeabi_uldivmod                     
00007145  __ashldi3                            
ffffffff  __binit__                            
0000585d  __cmpdf2                             
000067b9  __cmpsf2                             
00005069  __divsf3                             
0000585d  __eqdf2                              
000067b9  __eqsf2                              
00006869  __fixsfsi                            
00006971  __fixunssfsi                         
000066c9  __floatsisf                          
00007081  __floatunsidf                        
00006e99  __floatunsisf                        
0000554d  __gedf2                              
00006705  __gesf2                              
0000554d  __gtdf2                              
00006705  __gtsf2                              
0000585d  __ledf2                              
000067b9  __lesf2                              
0000585d  __ltdf2                              
000067b9  __ltsf2                              
UNDEFED   __mpu_init                           
000067f5  __muldsi3                            
00004dc1  __mulsf3                             
0000585d  __nedf2                              
000067b9  __nesf2                              
20207e00  __stack                              
20200000  __start___llvm_prf_bits              
20200000  __start___llvm_prf_cnts              
20200000  __stop___llvm_prf_bits               
20200000  __stop___llvm_prf_cnts               
00004569  __subsf3                             
00004a29  __udivmoddi4                         
00006ec1  _c_int00_noargs                      
UNDEFED   _system_post_cinit                   
00007be9  _system_pre_init                     
00007bc5  abort                                
000081e0  asc2_0806                            
00007bf0  asc2_1608                            
ffffffff  binit                                
000034cd  can_SendCmd                          
00006161  chasis_brake                         
20200b49  chasis_braked                        
00001885  chasis_cal                           
000055c1  chasis_set_velocity                  
00007b39  chasis_stop                          
20200b4a  chasis_trapezoid_done                
00001efd  chasis_trapezoid_move                
20200b4c  flag_enter                           
20200b4d  flag_long_b21                        
20200b4e  flag_next                            
20200220  gFRONT_OUTBackup                     
20200438  gMCAN0Backup                         
202002dc  gRL_OUTBackup                        
20200398  gRR_OUTBackup                        
20200ae4  g_dbg_isr_cnt                        
20200ae8  g_dbg_last_iidx                      
20200b40  g_dbg_state                          
20200aec  g_dbg_trig_cnt                       
20200b4f  g_flag_100hz                         
20200a68  g_q1_t1                              
20200a7c  g_q1_t2                              
20200a90  g_q1_t3                              
20200af0  g_tick                               
20200af8  g_us_dist0                           
20200afc  g_us_dist1                           
20200b00  g_us_pulse0                          
20200b04  g_us_pulse1                          
00007163  gimbal_disable                       
00007105  gimbal_enable                        
00007181  gimbal_return_zero                   
00007495  gimbal_set_zero                      
00005df5  gimbal_update                        
00005365  handleCanRxMessage                   
20200b50  init_ok                              
00000000  interruptVectors                     
202006c0  jy901_yaw                            
00005715  main                                 
00004641  motor_brake                          
00004491  motor_coast                          
00004715  motor_openloop_drive                 
00002b6d  motor_set                            
00004e4d  ms_callback                          
00007479  mspm0_delay_ms                       
00006cdd  mspm0_get_clock_ms                   
00005b15  oled_i2c_sda_unlock                  
00006af5  oled_pow                             
000035d9  one_hundured_ms_callback             
20200b42  rx_size                              
20200000  sReg                                 
20200b34  system_mode                          
00004c99  uart1_isIDLE                         
00005e49  uart1_receive_start                  
202004d0  uart1_rx_buff                        
20200b5e  uart1_rx_dma_complete_flag           
20200b5f  uart1_rx_length                      
20200b44  uart1_rx_size                        
00005b75  uart1_send                           
20200b60  uart1_tx_complete_flag               
20200b61  uart1_tx_dma_complete_flag           
00004d31  uart_isIDLE                          
00005e9d  uart_receive_start                   
20200534  uart_rx_buff                         
20200b64  uart_rx_dma_complete_flag            
20200b65  uart_rx_length                       
00005bd5  uart_send                            
20200b66  uart_tx_complete_flag                
20200b67  uart_tx_dma_complete_flag            
202006cc  user_chasis                          
000000c1  while_task                           
202006c4  x_origin                             
202006c8  y_origin                             


GLOBAL SYMBOLS: SORTED BY Symbol Address 

address   name                                 
-------   ----                                 
00000000  __TI_ATRegion0_region_sz             
00000000  __TI_ATRegion0_src_addr              
00000000  __TI_ATRegion0_trg_addr              
00000000  __TI_ATRegion1_region_sz             
00000000  __TI_ATRegion1_src_addr              
00000000  __TI_ATRegion1_trg_addr              
00000000  __TI_ATRegion2_region_sz             
00000000  __TI_ATRegion2_src_addr              
00000000  __TI_ATRegion2_trg_addr              
00000000  __TI_static_base__                   
00000000  interruptVectors                     
000000c1  while_task                           
00000200  __STACK_SIZE                         
00001885  chasis_cal                           
00001efd  chasis_trapezoid_move                
0000217d  DL_MCAN_msgRAMConfig                 
00002391  WitSerialDataIn                      
000025a5  Ultrasonic_GPIOB_ISR                 
0000298d  SYSCFG_DL_GPIO_init                  
00002b6d  motor_set                            
00002d25  UART_Rx_DMA_ToIdle_Callback          
00002ec1  WitWriteReg                          
00003195  OLED_ShowChar                        
000032ad  OLED_Init                            
000033c1  DL_MCAN_readMsgRam                   
000034cd  can_SendCmd                          
000035d7  Key_B21_Long                         
000035d9  one_hundured_ms_callback             
000036e1  DL_Timer_initFourCCPWMMode           
000037e5  DL_Timer_initTimerMode               
000038e1  OLED_ShowNum                         
000039d7  __aeabi_idiv0                        
000039d9  DL_MCAN_writeMsgRam                  
00003bbd  Menu_Run                             
00003cad  SYSCFG_DL_MCAN0_init                 
00003d99  KEY_Poll                             
00003e81  SYSCFG_DL_FRONT_OUT_init             
00003f69  SYSCFG_DL_SYSCTL_SYSPLL_init         
00004051  DL_MCAN_init                         
0000412d  DL_SYSCTL_configSYSPLL               
00004209  DL_MCAN_setBitTime                   
00004491  motor_coast                          
00004569  __aeabi_fsub                         
00004569  __subsf3                             
00004573  __addsf3                             
00004573  __aeabi_fadd                         
00004641  motor_brake                          
00004715  motor_openloop_drive                 
000047e5  SYSCFG_DL_initPower                  
000048a9  Ultrasonic_Trigger                   
0000496d  CAN_send_ext_frame                   
00004a29  __udivmoddi4                         
00004acb  __aeabi_ldiv0                        
00004acd  SYSCFG_DL_RR_OUT_init                
00004b69  OLED_WR_Byte                         
00004c01  SYSCFG_DL_RL_OUT_init                
00004c99  uart1_isIDLE                         
00004d31  uart_isIDLE                          
00004dc1  __aeabi_fmul                         
00004dc1  __mulsf3                             
00004e4d  ms_callback                          
00004ed9  SysTick_Handler                      
00005069  __aeabi_fdiv                         
00005069  __divsf3                             
000050eb  Emm_V5_Pos_Control                   
0000516d  UART0_IRQHandler                     
000051ed  UART1_IRQHandler                     
0000526d  CAN_Rx_FIFO0_New_Message_Callback    
000052e9  SYSCFG_DL_SYSCTL_init                
00005365  handleCanRxMessage                   
000053e1  __TI_decompress_lzss                 
0000545d  SYSCFG_DL_UART_0_init                
000054d5  SYSCFG_DL_UART_1_init                
0000554d  __gedf2                              
0000554d  __gtdf2                              
000055c1  chasis_set_velocity                  
00005635  OLED_ShowString                      
00005715  main                                 
000057f1  OLED_Clear                           
0000585d  __cmpdf2                             
0000585d  __eqdf2                              
0000585d  __ledf2                              
0000585d  __ltdf2                              
0000585d  __nedf2                              
000058c5  DL_SYSCTL_setHFCLKSourceHFXTParams   
00005929  GROUP1_IRQHandler                    
0000598d  __aeabi_dcmpeq                       
000059a1  __aeabi_dcmplt                       
000059b5  __aeabi_dcmple                       
000059c9  __aeabi_dcmpge                       
000059dd  __aeabi_dcmpgt                       
000059f1  __aeabi_fcmpeq                       
00005a05  __aeabi_fcmplt                       
00005a19  __aeabi_fcmple                       
00005a2d  __aeabi_fcmpge                       
00005a41  __aeabi_fcmpgt                       
00005a55  DL_SYSCTL_setLFCLKSourceLFXT         
00005ab5  SYSCFG_DL_init                       
00005b15  oled_i2c_sda_unlock                  
00005b75  uart1_send                           
00005bd5  uart_send                            
00005c35  DL_I2C_fillControllerTXFIFO          
00005cf1  SYSCFG_DL_I2C_OLED_init              
00005d49  Ultrasonic_Init                      
00005da1  Timestamp_Init                       
00005df5  gimbal_update                        
00005e49  uart1_receive_start                  
00005e9d  uart_receive_start                   
00006031  DL_DMA_initChannel                   
00006161  chasis_brake                         
000061ad  Emm_V5_En_Control                    
000061f9  DL_UART_init                         
00006241  Task_Cleanup                         
00006289  CANFD0_IRQHandler                    
000062cd  DL_MCAN_getRevisionId                
00006311  DL_SYSCTL_switchMCLKfromSYSOSCtoHSCLK
00006355  Ultrasonic_GetDistance_mm            
000063dd  DL_MCAN_writeRxFIFOAck               
0000641d  Emm_V5_Origin_Set_O                  
0000645d  UART1_Rx_DMA_ToIdle_Callback         
0000649d  Ultrasonic_IsDataReady               
000064dd  WitInit                              
0000651d  __aeabi_uidiv                        
0000651d  __aeabi_uidivmod                     
0000655d  Emm_V5_Origin_Trigger_Return         
000065d9  JY901_Init                           
00006615  Menu_Init                            
00006651  OLED_Set_Pos                         
0000668d  Timestamp_GetTicks                   
000066c9  __aeabi_i2f                          
000066c9  __floatsisf                          
00006705  __gesf2                              
00006705  __gtsf2                              
00006741  __TI_auto_init_nobinit_nopinit       
000067b9  __cmpsf2                             
000067b9  __eqsf2                              
000067b9  __lesf2                              
000067b9  __ltsf2                              
000067b9  __nesf2                              
000067f5  __muldsi3                            
00006831  DL_MCAN_getRxFIFOStatus              
00006869  __aeabi_f2iz                         
00006869  __fixsfsi                            
000068a1  DL_MCAN_TXBufAddReq                  
000068d5  DL_MCAN_setExtIDAndMask              
00006909  SYSCFG_DL_US_TIMER_init              
0000693d  Ultrasonic_GetPulseWidth_us          
00006971  __aeabi_f2uiz                        
00006971  __fixunssfsi                         
00006a35  SYSCFG_DL_DMA_CH0_init               
00006a65  SYSCFG_DL_DMA_CH1_init               
00006a95  SYSCFG_DL_DMA_CH2_init               
00006ac5  SYSCFG_DL_DMA_CH3_init               
00006af5  oled_pow                             
00006b25  DL_MCAN_TXBufTransIntrEnable         
00006b51  DL_MCAN_addExtMsgIDFilter            
00006b7d  DL_MCAN_addStdMsgIDFilter            
00006ba9  TIMG12_IRQHandler                    
00006bd5  WitDelayMsRegister                   
00006c01  WitRegisterCallBack                  
00006c2d  WitSerialWriteRegister               
00006cdd  mspm0_get_clock_ms                   
00006e99  __aeabi_ui2f                         
00006e99  __floatunsisf                        
00006ec1  _c_int00_noargs                      
00006fa7  DL_I2C_setClockConfig                
00007015  DL_MCAN_setClockConfig               
0000705d  JY901_Update                         
00007081  __aeabi_ui2d                         
00007081  __floatunsidf                        
000070c5  DL_MCAN_getTxFIFOQueStatus           
00007105  gimbal_enable                        
00007145  __aeabi_llsl                         
00007145  __ashldi3                            
00007163  gimbal_disable                       
00007181  gimbal_return_zero                   
00007329  DL_MCAN_enableIntr                   
00007345  DL_MCAN_enableIntrLine               
00007361  DL_MCAN_selectIntrLine               
0000737d  DL_SYSCTL_configFCC                  
00007425  DL_Timer_setCaptCompUpdateMethod     
00007441  DL_Timer_setClockConfig              
00007479  mspm0_delay_ms                       
00007495  gimbal_set_zero                      
00007721  DL_MCAN_setOpMode                    
000077b1  DL_Timer_setCaptureCompareOutCtl     
00007841  Task_Done                            
000078b1  KEY_Init                             
00007941  DL_MCAN_clearIntrStatus              
000079e1  SYSCFG_DL_DMA_init                   
000079f5  __aeabi_uldivmod                     
00007a63  DL_UART_setClockConfig               
00007a75  TI_memcpy_small                      
00007a87  __TI_decompress_none                 
00007a99  DL_MCAN_getOpMode                    
00007aa9  DL_MCAN_isMemInitDone                
00007af9  DL_Timer_setCaptureCompareValue      
00007b09  SYSCFG_DL_SYSTICK_init               
00007b19  User_Init                            
00007b29  __TI_zero_init                       
00007b39  chasis_stop                          
00007b47  TI_memset_small                      
00007b55  DL_MCAN_getIntrStatus                
00007b79  Key_A18_Pressed                      
00007b85  Key_B21_Pressed                      
00007b91  __aeabi_memclr                       
00007b91  __aeabi_memclr4                      
00007b91  __aeabi_memclr8                      
00007b9d  DL_Common_delayCycles                
00007bbd  __aeabi_memcpy                       
00007bbd  __aeabi_memcpy4                      
00007bbd  __aeabi_memcpy8                      
00007bc5  abort                                
00007bcb  ADC0_IRQHandler                      
00007bcb  ADC1_IRQHandler                      
00007bcb  AES_IRQHandler                       
00007bcb  DAC0_IRQHandler                      
00007bcb  DMA_IRQHandler                       
00007bcb  Default_Handler                      
00007bcb  GROUP0_IRQHandler                    
00007bcb  HardFault_Handler                    
00007bcb  I2C0_IRQHandler                      
00007bcb  I2C1_IRQHandler                      
00007bcb  NMI_Handler                          
00007bcb  PendSV_Handler                       
00007bcb  RTC_IRQHandler                       
00007bcb  SPI0_IRQHandler                      
00007bcb  SPI1_IRQHandler                      
00007bcb  SVC_Handler                          
00007bcb  TIMA0_IRQHandler                     
00007bcb  TIMA1_IRQHandler                     
00007bcb  TIMG0_IRQHandler                     
00007bcb  TIMG6_IRQHandler                     
00007bcb  TIMG7_IRQHandler                     
00007bcb  TIMG8_IRQHandler                     
00007bcb  UART2_IRQHandler                     
00007bcb  UART3_IRQHandler                     
00007bce  C$$EXIT                              
00007bcf  HOSTexit                             
00007bd3  Reset_Handler                        
00007be9  _system_pre_init                     
00007bf0  asc2_1608                            
000081e0  asc2_0806                            
00008b08  __TI_Handler_Table_Base              
00008b14  __TI_Handler_Table_Limit             
00008b1c  __TI_CINIT_Base                      
00008b2c  __TI_CINIT_Limit                     
00008b2c  __TI_CINIT_Warm                      
20200000  __start___llvm_prf_bits              
20200000  __start___llvm_prf_cnts              
20200000  __stop___llvm_prf_bits               
20200000  __stop___llvm_prf_cnts               
20200000  sReg                                 
20200220  gFRONT_OUTBackup                     
202002dc  gRL_OUTBackup                        
20200398  gRR_OUTBackup                        
20200438  gMCAN0Backup                         
202004d0  uart1_rx_buff                        
20200534  uart_rx_buff                         
202006c0  jy901_yaw                            
202006c4  x_origin                             
202006c8  y_origin                             
202006cc  user_chasis                          
20200a68  g_q1_t1                              
20200a7c  g_q1_t2                              
20200a90  g_q1_t3                              
20200ae4  g_dbg_isr_cnt                        
20200ae8  g_dbg_last_iidx                      
20200aec  g_dbg_trig_cnt                       
20200af0  g_tick                               
20200af8  g_us_dist0                           
20200afc  g_us_dist1                           
20200b00  g_us_pulse0                          
20200b04  g_us_pulse1                          
20200b34  system_mode                          
20200b40  g_dbg_state                          
20200b42  rx_size                              
20200b44  uart1_rx_size                        
20200b49  chasis_braked                        
20200b4a  chasis_trapezoid_done                
20200b4c  flag_enter                           
20200b4d  flag_long_b21                        
20200b4e  flag_next                            
20200b4f  g_flag_100hz                         
20200b50  init_ok                              
20200b5e  uart1_rx_dma_complete_flag           
20200b5f  uart1_rx_length                      
20200b60  uart1_tx_complete_flag               
20200b61  uart1_tx_dma_complete_flag           
20200b64  uart_rx_dma_complete_flag            
20200b65  uart_rx_length                       
20200b66  uart_tx_complete_flag                
20200b67  uart_tx_dma_complete_flag            
20207e00  __stack                              
20208000  __STACK_END                          
ffffffff  __TI_pprof_out_hndl                  
ffffffff  __TI_prof_data_size                  
ffffffff  __TI_prof_data_start                 
ffffffff  __binit__                            
ffffffff  binit                                
UNDEFED   __mpu_init                           
UNDEFED   _system_post_cinit                   

[302 symbols]
