******************************************************************************
            TI ARM Clang Linker PC v4.0.4                      
******************************************************************************
>> Linked Sat May 23 09:27:55 2026

OUTPUT FILE NAME:   <test.out>
ENTRY POINT SYMBOL: "_c_int00_noargs"  address: 000040d5


MEMORY CONFIGURATION

         name            origin    length      used     unused   attr    fill
----------------------  --------  ---------  --------  --------  ----  --------
  FLASH                 00000000   00020000  00005708  0001a8f8  R  X
  SRAM                  20200000   00008000  000007d7  00007829  RW X
  BCR_CONFIG            41c00000   000000ff  00000000  000000ff  R   
  BSL_CONFIG            41c00100   00000080  00000000  00000080  R   


SEGMENT ALLOCATION MAP

run origin  load origin   length   init length attrs members
----------  ----------- ---------- ----------- ----- -------
00000000    00000000    00005708   00005708    r-x
  00000000    00000000    000000c0   000000c0    r-- .intvecs
  000000c0    000000c0    00004b20   00004b20    r-x .text
  00004be0    00004be0    00000a98   00000a98    r-- .rodata
  00005678    00005678    00000090   00000090    r-- .cinit
20200000    20200000    000005d7   00000000    rw-
  20200000    20200000    000003b0   00000000    rw- .bss
  202003b0    202003b0    00000227   00000000    rw- .data
20207e00    20207e00    00000200   00000000    rw-
  20207e00    20207e00    00000200   00000000    rw- .stack


SECTION ALLOCATION MAP

 output                                  attributes/
section   page    origin      length       input sections
--------  ----  ----------  ----------   ----------------
.intvecs   0    00000000    000000c0     
                  00000000    000000c0     startup_mspm0g350x_ticlang.o (.intvecs)

.text      0    000000c0    00004b20     
                  000000c0    00000470     Task.o (.text.while_task)
                  00000530    00000214     driverlib.a : dl_mcan.o (.text.DL_MCAN_msgRAMConfig)
                  00000744    000001b8     bsp_PWM.o (.text.motor_set)
                  000008fc    000001a4     ti_msp_dl_config.o (.text.SYSCFG_DL_GPIO_init)
                  00000aa0    00000168     chasis.o (.text.chasis_cal)
                  00000c08    0000015c     chasis.o (.text.mec_inverse)
                  00000d64    00000118     bsp_oled.o (.text.OLED_ShowChar)
                  00000e7c    00000114     bsp_oled.o (.text.OLED_Init)
                  00000f90    0000010c     driverlib.a : dl_mcan.o (.text.DL_MCAN_readMsgRam)
                  0000109c    0000010a     ZDT_CAN.o (.text.can_SendCmd)
                  000011a6    00000002     libclang_rt.builtins.a : aeabi_div0.c.obj (.text.__aeabi_idiv0)
                  000011a8    00000104     driverlib.a : dl_timer.o (.text.DL_Timer_initFourCCPWMMode)
                  000012ac    000000f6     bsp_oled.o (.text.OLED_ShowNum)
                  000013a2    00000002     --HOLE-- [fill = 0]
                  000013a4    000000f4     driverlib.a : dl_mcan.o (.text.DL_MCAN_writeMsgRam)
                  00001498    000000f4     task_scheduler.o (.text.Menu_Run)
                  0000158c    000000f0     task_scheduler.o (.text.Menu_Enter)
                  0000167c    000000ec     ti_msp_dl_config.o (.text.SYSCFG_DL_MCAN0_init)
                  00001768    000000e8     ti_msp_dl_config.o (.text.SYSCFG_DL_FRONT_OUT_init)
                  00001850    000000e8     ti_msp_dl_config.o (.text.SYSCFG_DL_SYSCTL_SYSPLL_init)
                  00001938    000000e0     Task.o (.text.UART_Rx_DMA_ToIdle_Callback)
                  00001a18    000000dc     driverlib.a : dl_mcan.o (.text.DL_MCAN_init)
                  00001af4    000000dc                 : dl_sysctl_mspm0g1x0x_g3x0x.o (.text.DL_SYSCTL_configSYSPLL)
                  00001bd0    000000d8                 : dl_mcan.o (.text.DL_MCAN_setBitTime)
                  00001ca8    000000d8     task_scheduler.o (.text.Menu_Draw)
                  00001d80    000000d8     bsp_PWM.o (.text.motor_coast)
                  00001e58    000000d8     libclang_rt.builtins.a : addsf3.S.obj (.text)
                  00001f30    000000d4     bsp_PWM.o (.text.motor_brake)
                  00002004    000000d0     chasis.o (.text.motor_openloop_drive)
                  000020d4    000000bc     bsp_CAN.o (.text.CAN_send_ext_frame)
                  00002190    000000b0     ti_msp_dl_config.o (.text.SYSCFG_DL_initPower)
                  00002240    0000009c     ti_msp_dl_config.o (.text.SYSCFG_DL_RR_OUT_init)
                  000022dc    00000098     bsp_oled.o (.text.OLED_WR_Byte)
                  00002374    00000098     ti_msp_dl_config.o (.text.SYSCFG_DL_RL_OUT_init)
                  0000240c    00000094     bsp_UART1.o (.text.uart1_isIDLE)
                  000024a0    0000008c     libclang_rt.builtins.a : mulsf3.S.obj (.text.__mulsf3)
                  0000252c    0000008c     bsp_UART.o (.text.uart_isIDLE)
                  000025b8    00000088     empty.o (.text.SysTick_Handler)
                  00002640    00000084     bsp_key.o (.text.KEY_Poll)
                  000026c4    00000084     task_scheduler.o (.text.Menu_Next)
                  00002748    00000084     ti_msp_dl_config.o (.text.__NVIC_SetPriority)
                  000027cc    00000082     libclang_rt.builtins.a : divsf3.S.obj (.text.__divsf3)
                  0000284e    00000080     ZDT_Driver.o (.text.Emm_V5_Pos_Control)
                  000028ce    00000002     --HOLE-- [fill = 0]
                  000028d0    0000007c     ti_msp_dl_config.o (.text.SYSCFG_DL_SYSCTL_init)
                  0000294c    0000007c     bsp_UART.o (.text.UART0_IRQHandler)
                  000029c8    0000007c     bsp_UART1.o (.text.UART1_IRQHandler)
                  00002a44    0000007c     bsp_CAN.o (.text.handleCanRxMessage)
                  00002ac0    0000007c     Task.o (.text.ms_callback)
                  00002b3c    0000007c     libc.a : copy_decompress_lzss.c.obj (.text:decompress:lzss)
                  00002bb8    00000078     ti_msp_dl_config.o (.text.SYSCFG_DL_UART_0_init)
                  00002c30    00000078     ti_msp_dl_config.o (.text.SYSCFG_DL_UART_1_init)
                  00002ca8    00000074     libclang_rt.builtins.a : comparedf2.c.obj (.text.__gedf2)
                  00002d1c    00000070     bsp_oled.o (.text.OLED_ShowString)
                  00002d8c    0000006c     chasis.o (.text.chasis_set_velocity)
                  00002df8    0000006c     Task.o (.text.one_hundured_ms_callback)
                  00002e64    0000006a     bsp_oled.o (.text.OLED_Clear)
                  00002ece    00000002     --HOLE-- [fill = 0]
                  00002ed0    00000068     Task.o (.text.CAN_Rx_FIFO0_New_Message_Callback)
                  00002f38    00000068     libclang_rt.builtins.a : comparedf2.c.obj (.text.__ledf2)
                  00002fa0    00000068     empty.o (.text.main)
                  00003008    00000064     driverlib.a : dl_sysctl_mspm0g1x0x_g3x0x.o (.text.DL_SYSCTL_setHFCLKSourceHFXTParams)
                  0000306c    00000062     libclang_rt.builtins.a : aeabi_dcmp.S.obj (.text.__aeabi_dcmp)
                  000030ce    00000002     --HOLE-- [fill = 0]
                  000030d0    00000062                            : aeabi_fcmp.S.obj (.text.__aeabi_fcmp)
                  00003132    00000002     --HOLE-- [fill = 0]
                  00003134    00000060     driverlib.a : dl_sysctl_mspm0g1x0x_g3x0x.o (.text.DL_SYSCTL_setLFCLKSourceLFXT)
                  00003194    00000060     bsp_oled.o (.text.oled_i2c_sda_unlock)
                  000031f4    0000005e     driverlib.a : dl_i2c.o (.text.DL_I2C_fillControllerTXFIFO)
                  00003252    00000002     --HOLE-- [fill = 0]
                  00003254    0000005c     ti_msp_dl_config.o (.text.SYSCFG_DL_init)
                  000032b0    0000005c     bsp_oled.o (.text.mspm0_i2c_enable)
                  0000330c    00000058     ti_msp_dl_config.o (.text.SYSCFG_DL_I2C_OLED_init)
                  00003364    00000056     gimbal.o (.text.gimbal_update)
                  000033ba    00000002     --HOLE-- [fill = 0]
                  000033bc    00000054     bsp_UART1.o (.text.uart1_receive_start)
                  00003410    00000054     bsp_UART.o (.text.uart_receive_start)
                  00003464    00000050     bsp_oled.o (.text.DL_GPIO_initPeripheralInputFunctionFeatures)
                  000034b4    00000050     ti_msp_dl_config.o (.text.DL_GPIO_initPeripheralInputFunctionFeatures)
                  00003504    00000050     bsp_oled.o (.text.DL_I2C_startControllerTransfer)
                  00003554    00000050     ti_msp_dl_config.o (.text.SysTick_Config)
                  000035a4    0000004c     driverlib.a : dl_dma.o (.text.DL_DMA_initChannel)
                  000035f0    0000004c     bsp_oled.o (.text.DL_GPIO_initDigitalInputFeatures)
                  0000363c    0000004c     ti_msp_dl_config.o (.text.DL_GPIO_initDigitalInputFeatures)
                  00003688    0000004c     ti_msp_dl_config.o (.text.DL_UART_setBaudRateDivisor)
                  000036d4    0000004a     ZDT_Driver.o (.text.Emm_V5_En_Control)
                  0000371e    00000002     --HOLE-- [fill = 0]
                  00003720    00000048     driverlib.a : dl_uart.o (.text.DL_UART_init)
                  00003768    00000048     Task.o (.text.Task_Cleanup)
                  000037b0    00000044     bsp_CAN.o (.text.CANFD0_IRQHandler)
                  000037f4    00000044     driverlib.a : dl_mcan.o (.text.DL_MCAN_getRevisionId)
                  00003838    00000044                 : dl_sysctl_mspm0g1x0x_g3x0x.o (.text.DL_SYSCTL_switchMCLKfromSYSOSCtoHSCLK)
                  0000387c    00000044     chasis.o (.text.chasis_brake)
                  000038c0    00000044     bsp_oled.o (.text.mspm0_i2c_disable)
                  00003904    00000040     driverlib.a : dl_mcan.o (.text.DL_MCAN_writeRxFIFOAck)
                  00003944    00000040     ZDT_Driver.o (.text.Emm_V5_Origin_Set_O)
                  00003984    00000040     libclang_rt.builtins.a : aeabi_uidivmod.S.obj (.text.__aeabi_uidivmod)
                  000039c4    0000003e     ZDT_Driver.o (.text.Emm_V5_Origin_Trigger_Return)
                  00003a02    00000002     --HOLE-- [fill = 0]
                  00003a04    0000003c     ti_msp_dl_config.o (.text.DL_Timer_setCounterControl)
                  00003a40    0000003c     bsp_key.o (.text.GROUP1_IRQHandler)
                  00003a7c    0000003c     task_scheduler.o (.text.Menu_Init)
                  00003ab8    0000003c     bsp_oled.o (.text.OLED_Set_Pos)
                  00003af4    0000003c     libclang_rt.builtins.a : comparesf2.S.obj (.text.__gtsf2)
                  00003b30    0000003c     libc.a : autoinit.c.obj (.text:__TI_auto_init_nobinit_nopinit)
                  00003b6c    0000003a     libclang_rt.builtins.a : comparesf2.S.obj (.text.__eqsf2)
                  00003ba6    00000002     --HOLE-- [fill = 0]
                  00003ba8    0000003a                            : muldsi3.S.obj (.text.__muldsi3)
                  00003be2    00000002     --HOLE-- [fill = 0]
                  00003be4    00000038     driverlib.a : dl_mcan.o (.text.DL_MCAN_getRxFIFOStatus)
                  00003c1c    00000038     libclang_rt.builtins.a : fixsfsi.S.obj (.text.__fixsfsi)
                  00003c54    00000034     driverlib.a : dl_mcan.o (.text.DL_MCAN_TXBufAddReq)
                  00003c88    00000034                 : dl_mcan.o (.text.DL_MCAN_setExtIDAndMask)
                  00003cbc    00000030     bsp_UART.o (.text.DL_DMA_setTransferSize)
                  00003cec    00000030     bsp_UART1.o (.text.DL_DMA_setTransferSize)
                  00003d1c    00000030     ti_msp_dl_config.o (.text.DL_GPIO_initDigitalOutputFeatures)
                  00003d4c    00000030     ti_msp_dl_config.o (.text.SYSCFG_DL_DMA_CH0_init)
                  00003d7c    00000030     ti_msp_dl_config.o (.text.SYSCFG_DL_DMA_CH1_init)
                  00003dac    00000030     ti_msp_dl_config.o (.text.SYSCFG_DL_DMA_CH2_init)
                  00003ddc    00000030     ti_msp_dl_config.o (.text.SYSCFG_DL_DMA_CH3_init)
                  00003e0c    00000030     bsp_oled.o (.text.oled_pow)
                  00003e3c    0000002c     driverlib.a : dl_mcan.o (.text.DL_MCAN_TXBufTransIntrEnable)
                  00003e68    0000002c                 : dl_mcan.o (.text.DL_MCAN_addExtMsgIDFilter)
                  00003e94    0000002c                 : dl_mcan.o (.text.DL_MCAN_addStdMsgIDFilter)
                  00003ec0    0000002c     bsp_key.o (.text.__NVIC_EnableIRQ)
                  00003eec    0000002c     empty.o (.text.__NVIC_EnableIRQ)
                  00003f18    0000002c     empty.o (.text.mspm0_get_clock_ms)
                  00003f44    00000028     bsp_oled.o (.text.DL_Common_updateReg)
                  00003f6c    00000028     ti_msp_dl_config.o (.text.DL_Common_updateReg)
                  00003f94    00000028     bsp_UART.o (.text.DL_DMA_setDestAddr)
                  00003fbc    00000028     bsp_UART1.o (.text.DL_DMA_setDestAddr)
                  00003fe4    00000028     bsp_UART.o (.text.DL_DMA_setSrcAddr)
                  0000400c    00000028     bsp_UART1.o (.text.DL_DMA_setSrcAddr)
                  00004034    00000028     ti_msp_dl_config.o (.text.DL_I2C_setControllerRXFIFOThreshold)
                  0000405c    00000028     ti_msp_dl_config.o (.text.DL_I2C_setControllerTXFIFOThreshold)
                  00004084    00000028     ti_msp_dl_config.o (.text.DL_UART_setRXFIFOThreshold)
                  000040ac    00000028     ti_msp_dl_config.o (.text.DL_UART_setTXFIFOThreshold)
                  000040d4    00000028     libc.a : boot_cortex_m.c.obj (.text:_c_int00_noargs)
                  000040fc    00000026     bsp_UART.o (.text.DL_DMA_disableChannel)
                  00004122    00000026     bsp_UART1.o (.text.DL_DMA_disableChannel)
                  00004148    00000026     bsp_UART.o (.text.DL_DMA_enableChannel)
                  0000416e    00000026     bsp_UART1.o (.text.DL_DMA_enableChannel)
                  00004194    00000026     ti_msp_dl_config.o (.text.DL_I2C_setAnalogGlitchFilterPulseWidth)
                  000041ba    00000026     driverlib.a : dl_i2c.o (.text.DL_I2C_setClockConfig)
                  000041e0    00000024     bsp_UART.o (.text.DL_DMA_getTransferSize)
                  00004204    00000024     bsp_UART1.o (.text.DL_DMA_getTransferSize)
                  00004228    00000024     driverlib.a : dl_mcan.o (.text.DL_MCAN_setClockConfig)
                  0000424c    00000024     ti_msp_dl_config.o (.text.DL_UART_setRXInterruptTimeout)
                  00004270    00000024     libclang_rt.builtins.a : floatunsidf.S.obj (.text.__floatunsidf)
                  00004294    00000020     ti_msp_dl_config.o (.text.DL_GPIO_initPeripheralInputFunction)
                  000042b4    00000020     driverlib.a : dl_mcan.o (.text.DL_MCAN_getTxFIFOQueStatus)
                  000042d4    00000020     ti_msp_dl_config.o (.text.DL_SYSCTL_setFlashWaitState)
                  000042f4    00000020     gimbal.o (.text.gimbal_enable)
                  00004314    0000001e     ti_msp_dl_config.o (.text.DL_UART_setOversampling)
                  00004332    0000001e     gimbal.o (.text.gimbal_disable)
                  00004350    0000001e     gimbal.o (.text.gimbal_return_zero)
                  0000436e    00000002     --HOLE-- [fill = 0]
                  00004370    0000001c     ti_msp_dl_config.o (.text.DL_DMA_enableInterrupt)
                  0000438c    0000001c     ti_msp_dl_config.o (.text.DL_GPIO_clearInterruptStatus)
                  000043a8    0000001c     bsp_oled.o (.text.DL_GPIO_enableHiZ)
                  000043c4    0000001c     ti_msp_dl_config.o (.text.DL_GPIO_enableHiZ)
                  000043e0    0000001c     ti_msp_dl_config.o (.text.DL_GPIO_enableInterrupt)
                  000043fc    0000001c     ti_msp_dl_config.o (.text.DL_GPIO_initPeripheralOutputFunction)
                  00004418    0000001c     bsp_oled.o (.text.DL_I2C_getSDAStatus)
                  00004434    0000001c     bsp_key.o (.text.DL_Interrupt_getPendingGroup)
                  00004450    0000001c     ti_msp_dl_config.o (.text.DL_MCAN_enableInterrupt)
                  0000446c    0000001c     driverlib.a : dl_mcan.o (.text.DL_MCAN_enableIntr)
                  00004488    0000001c                 : dl_mcan.o (.text.DL_MCAN_enableIntrLine)
                  000044a4    0000001c                 : dl_mcan.o (.text.DL_MCAN_selectIntrLine)
                  000044c0    0000001c                 : dl_sysctl_mspm0g1x0x_g3x0x.o (.text.DL_SYSCTL_configFCC)
                  000044dc    0000001c     ti_msp_dl_config.o (.text.DL_SYSCTL_setFCCPeriods)
                  000044f8    0000001c     ti_msp_dl_config.o (.text.DL_SYSCTL_setSYSOSCFreq)
                  00004514    0000001c     ti_msp_dl_config.o (.text.DL_SYSCTL_setULPCLKDivider)
                  00004530    0000001c     driverlib.a : dl_timer.o (.text.DL_Timer_setCaptCompUpdateMethod)
                  0000454c    0000001c                 : dl_timer.o (.text.DL_Timer_setClockConfig)
                  00004568    0000001c     ti_msp_dl_config.o (.text.DL_UART_enableInterrupt)
                  00004584    0000001c     empty.o (.text.mspm0_delay_ms)
                  000045a0    0000001a     gimbal.o (.text.gimbal_set_zero)
                  000045ba    00000002     --HOLE-- [fill = 0]
                  000045bc    00000018     ti_msp_dl_config.o (.text.DL_DMA_clearInterruptStatus)
                  000045d4    00000018     bsp_oled.o (.text.DL_GPIO_enableOutput)
                  000045ec    00000018     ti_msp_dl_config.o (.text.DL_GPIO_enableOutput)
                  00004604    00000018     ti_msp_dl_config.o (.text.DL_GPIO_enablePower)
                  0000461c    00000018     bsp_oled.o (.text.DL_GPIO_initDigitalOutput)
                  00004634    00000018     ti_msp_dl_config.o (.text.DL_GPIO_initPeripheralAnalogFunction)
                  0000464c    00000018     ti_msp_dl_config.o (.text.DL_GPIO_reset)
                  00004664    00000018     bsp_oled.o (.text.DL_GPIO_setPins)
                  0000467c    00000018     empty.o (.text.DL_GPIO_setPins)
                  00004694    00000018     ti_msp_dl_config.o (.text.DL_GPIO_setUpperPinsPolarity)
                  000046ac    00000018     empty.o (.text.DL_GPIO_togglePins)
                  000046c4    00000018     bsp_oled.o (.text.DL_I2C_clearInterruptStatus)
                  000046dc    00000018     ti_msp_dl_config.o (.text.DL_I2C_enableAnalogGlitchFilter)
                  000046f4    00000018     ti_msp_dl_config.o (.text.DL_I2C_enableController)
                  0000470c    00000018     ti_msp_dl_config.o (.text.DL_I2C_enableControllerClockStretching)
                  00004724    00000018     bsp_oled.o (.text.DL_I2C_enablePower)
                  0000473c    00000018     ti_msp_dl_config.o (.text.DL_I2C_enablePower)
                  00004754    00000018     bsp_oled.o (.text.DL_I2C_getRawInterruptStatus)
                  0000476c    00000018     bsp_oled.o (.text.DL_I2C_reset)
                  00004784    00000018     ti_msp_dl_config.o (.text.DL_I2C_reset)
                  0000479c    00000018     ti_msp_dl_config.o (.text.DL_I2C_setTimerPeriod)
                  000047b4    00000018     ti_msp_dl_config.o (.text.DL_MCAN_clearInterruptStatus)
                  000047cc    00000018     ti_msp_dl_config.o (.text.DL_MCAN_enablePower)
                  000047e4    00000018     ti_msp_dl_config.o (.text.DL_MCAN_reset)
                  000047fc    00000018     driverlib.a : dl_mcan.o (.text.DL_MCAN_setOpMode)
                  00004814    00000018     ti_msp_dl_config.o (.text.DL_SYSCTL_setBORThreshold)
                  0000482c    00000018     ti_msp_dl_config.o (.text.DL_Timer_enablePower)
                  00004844    00000018     ti_msp_dl_config.o (.text.DL_Timer_enableShadowFeatures)
                  0000485c    00000018     ti_msp_dl_config.o (.text.DL_Timer_reset)
                  00004874    00000018     driverlib.a : dl_timer.o (.text.DL_Timer_setCaptureCompareOutCtl)
                  0000488c    00000018     ti_msp_dl_config.o (.text.DL_UART_enableDMAReceiveEvent)
                  000048a4    00000018     ti_msp_dl_config.o (.text.DL_UART_enableDMATransmitEvent)
                  000048bc    00000018     ti_msp_dl_config.o (.text.DL_UART_enableFIFOs)
                  000048d4    00000018     ti_msp_dl_config.o (.text.DL_UART_enablePower)
                  000048ec    00000018     ti_msp_dl_config.o (.text.DL_UART_reset)
                  00004904    00000018     task_scheduler.o (.text.Task_Done)
                  0000491c    00000016     bsp_key.o (.text.DL_GPIO_readPins)
                  00004932    00000016     bsp_oled.o (.text.DL_GPIO_readPins)
                  00004948    00000016     ti_msp_dl_config.o (.text.DL_UART_enable)
                  0000495e    00000016     bsp_key.o (.text.KEY_Init)
                  00004974    00000016     libc.a : copy_zero_init.c.obj (.text:decompress:ZI:__TI_zero_init_nomemset)
                  0000498a    00000014     bsp_oled.o (.text.DL_GPIO_clearPins)
                  0000499e    00000014     ti_msp_dl_config.o (.text.DL_GPIO_clearPins)
                  000049b2    00000002     --HOLE-- [fill = 0]
                  000049b4    00000014     bsp_oled.o (.text.DL_I2C_getControllerStatus)
                  000049c8    00000014     ti_msp_dl_config.o (.text.DL_I2C_resetControllerTransfer)
                  000049dc    00000014     driverlib.a : dl_mcan.o (.text.DL_MCAN_clearIntrStatus)
                  000049f0    00000014     bsp_CAN.o (.text.DL_MCAN_getPendingInterrupt)
                  00004a04    00000014     ti_msp_dl_config.o (.text.DL_SYSCTL_disableSYSPLL)
                  00004a18    00000014     ti_msp_dl_config.o (.text.DL_SYSCTL_enableSYSPLL)
                  00004a2c    00000014     ti_msp_dl_config.o (.text.DL_Timer_enableClock)
                  00004a40    00000014     ti_msp_dl_config.o (.text.DL_Timer_setCCPDirection)
                  00004a54    00000014     ti_msp_dl_config.o (.text.SYSCFG_DL_DMA_init)
                  00004a68    00000012     ti_msp_dl_config.o (.text.DL_MCAN_enableModuleClock)
                  00004a7a    00000012     bsp_UART.o (.text.DL_UART_getPendingInterrupt)
                  00004a8c    00000012     bsp_UART1.o (.text.DL_UART_getPendingInterrupt)
                  00004a9e    00000012     driverlib.a : dl_uart.o (.text.DL_UART_setClockConfig)
                  00004ab0    00000012     libc.a : memcpy16.S.obj (.text:TI_memcpy_small)
                  00004ac2    00000012            : copy_decompress_none.c.obj (.text:decompress:none)
                  00004ad4    00000010     driverlib.a : dl_mcan.o (.text.DL_MCAN_getOpMode)
                  00004ae4    00000010                 : dl_mcan.o (.text.DL_MCAN_isMemInitDone)
                  00004af4    00000010     ti_msp_dl_config.o (.text.DL_SYSCTL_disableHFXT)
                  00004b04    00000010     ti_msp_dl_config.o (.text.DL_SYSCTL_isFCCDone)
                  00004b14    00000010     ti_msp_dl_config.o (.text.DL_SYSCTL_startFCC)
                  00004b24    00000010     driverlib.a : dl_timer.o (.text.DL_Timer_setCaptureCompareValue)
                  00004b34    00000010     ti_msp_dl_config.o (.text.SYSCFG_DL_SYSTICK_init)
                  00004b44    0000000e     chasis.o (.text.chasis_stop)
                  00004b52    00000002     --HOLE-- [fill = 0]
                  00004b54    0000000c     driverlib.a : dl_mcan.o (.text.DL_MCAN_getIntrStatus)
                  00004b60    0000000c     ti_msp_dl_config.o (.text.DL_SYSCTL_getClockStatus)
                  00004b6c    0000000c     ti_msp_dl_config.o (.text.DL_SYSCTL_readFCC)
                  00004b78    0000000c     Task.o (.text.Key_A18_Pressed)
                  00004b84    0000000c     Task.o (.text.Key_B21_Pressed)
                  00004b90    0000000c     Task.o (.text.User_Init)
                  00004b9c    0000000a     driverlib.a : dl_common.o (.text.DL_Common_delayCycles)
                  00004ba6    0000000a     bsp_UART1.o (.text.UART1_Rx_DMA_ToIdle_Callback)
                  00004bb0    00000008     libclang_rt.builtins.a : aeabi_memcpy.S.obj (.text.__aeabi_memcpy)
                  00004bb8    00000006     libc.a : exit.c.obj (.text:abort)
                  00004bbe    00000004     startup_mspm0g350x_ticlang.o (.text.Default_Handler)
                  00004bc2    00000004     libsysbm.a : hostexit.c.obj (.text.HOSTexit)
                  00004bc6    00000004     startup_mspm0g350x_ticlang.o (.text.Reset_Handler)
                  00004bca    00000002     --HOLE-- [fill = 0]
                  00004bcc    00000010     libc.a : boot_cortex_m.c.obj (.tramp._c_int00_noargs.1)
                  00004bdc    00000004            : pre_init.c.obj (.text._system_pre_init)

.cinit     0    00005678    00000090     
                  00005678    0000006b     (.cinit..data.load) [load image, compression = lzss]
                  000056e3    00000001     --HOLE-- [fill = 0]
                  000056e4    0000000c     (__TI_handler_table)
                  000056f0    00000008     (.cinit..bss.load) [load image, compression = zero_init]
                  000056f8    00000010     (__TI_cinit_table)

.rodata    0    00004be0    00000a98     
                  00004be0    000005f0     bsp_oled.o (.rodata.asc2_1608)
                  000051d0    00000228     bsp_oled.o (.rodata.asc2_0806)
                  000053f8    00000060     ti_msp_dl_config.o (.rodata.gMCAN0MsgRAMConfigParams)
                  00005458    00000040     driverlib.a : dl_mcan.o (.rodata..L__const.DL_MCAN_getDataSize.dataSize)
                  00005498    00000034     ti_msp_dl_config.o (.rodata.gMCAN0InitParams)
                  000054cc    00000028     ti_msp_dl_config.o (.rodata.gSYSPLLConfig)
                  000054f4    00000020     driverlib.a : dl_mcan.o (.rodata.cst32)
                  00005514    00000020     ti_msp_dl_config.o (.rodata.gMCAN0BitTimes)
                  00005534    00000018     ti_msp_dl_config.o (.rodata.gDMA_CH0Config)
                  0000554c    00000018     ti_msp_dl_config.o (.rodata.gDMA_CH1Config)
                  00005564    00000018     ti_msp_dl_config.o (.rodata.gDMA_CH2Config)
                  0000557c    00000018     ti_msp_dl_config.o (.rodata.gDMA_CH3Config)
                  00005594    00000010     ti_msp_dl_config.o (.rodata.gMCAN0ExtFiltelem)
                  000055a4    00000010     ti_msp_dl_config.o (.rodata.gMCAN0StdFiltelem)
                  000055b4    00000010     chasis.o (.rodata.openloop_ratio)
                  000055c4    0000000b     task_scheduler.o (.rodata.str1.14190357177579510289.1)
                  000055cf    0000000b     task_scheduler.o (.rodata.str1.14552388435526194663.1)
                  000055da    0000000b     task_scheduler.o (.rodata.str1.9247241511803337348.1)
                  000055e5    00000001     task_scheduler.o (.rodata.str1.9784223496667871455.1)
                  000055e6    0000000a     ti_msp_dl_config.o (.rodata.gUART_0Config)
                  000055f0    0000000a     ti_msp_dl_config.o (.rodata.gUART_1Config)
                  000055fa    0000000a     task_scheduler.o (.rodata.str1.13768897686556393344.1)
                  00005604    0000000a     task_scheduler.o (.rodata.str1.14699949538115772633.1)
                  0000560e    00000009     task_scheduler.o (.rodata.str1.14606958373863359431.1)
                  00005617    00000009     task_scheduler.o (.rodata.str1.17984259232970945524.1)
                  00005620    00000009     task_scheduler.o (.rodata.str1.18069038080357984115.1)
                  00005629    00000003     ti_msp_dl_config.o (.rodata.gFRONT_OUTClockConfig)
                  0000562c    00000008     ti_msp_dl_config.o (.rodata.gFRONT_OUTConfig)
                  00005634    00000008     ti_msp_dl_config.o (.rodata.gRL_OUTConfig)
                  0000563c    00000008     ti_msp_dl_config.o (.rodata.gRR_OUTConfig)
                  00005644    00000008     task_scheduler.o (.rodata.str1.4916143694647286702.1)
                  0000564c    00000007     task_scheduler.o (.rodata.str1.10506625049490768188.1)
                  00005653    00000007     task_scheduler.o (.rodata.str1.17557591748756409378.1)
                  0000565a    00000006     task_scheduler.o (.rodata.str1.4577691884733283733.1)
                  00005660    00000004     ti_msp_dl_config.o (.rodata.gMCAN0ClockConf)
                  00005664    00000003     ti_msp_dl_config.o (.rodata.gLFCLKConfig)
                  00005667    00000003     ti_msp_dl_config.o (.rodata.gRL_OUTClockConfig)
                  0000566a    00000003     ti_msp_dl_config.o (.rodata.gRR_OUTClockConfig)
                  0000566d    00000002     ti_msp_dl_config.o (.rodata.gI2C_OLEDClockConfig)
                  0000566f    00000002     ti_msp_dl_config.o (.rodata.gUART_0ClockConfig)
                  00005671    00000002     ti_msp_dl_config.o (.rodata.gUART_1ClockConfig)
                  00005673    00000002     task_scheduler.o (.rodata.str1.12698780283469048528.1)
                  00005675    00000003     --HOLE-- [fill = 0]

.init_array 
*          0    00000000    00000000     UNINITIALIZED

.binit     0    00000000    00000000     

.bss       0    20200000    000003b0     UNINITIALIZED
                  20200000    000000bc     (.common:gFRONT_OUTBackup)
                  202000bc    000000bc     (.common:gRL_OUTBackup)
                  20200178    000000a0     (.common:gRR_OUTBackup)
                  20200218    00000098     (.common:gMCAN0Backup)
                  202002b0    00000064     (.common:uart1_rx_buff)
                  20200314    00000064     (.common:uart_rx_buff)
                  20200378    00000020     Task.o (.bss.once_flag)
                  20200398    00000018     task_scheduler.o (.bss.menu_stack)

.data      0    202003b0    00000227     UNINITIALIZED
                  202003b0    00000118     chasis.o (.data.user_chasis)
                  202004c8    00000090     task_scheduler.o (.data.menu_debug_items)
                  20200558    00000010     bsp_PWM.o (.data.g_motor)
                  20200568    00000010     task_scheduler.o (.data.menu_root)
                  20200578    00000010     task_scheduler.o (.data.menu_root_items)
                  20200588    00000010     chasis.o (.data.motor_test_target_rpm)
                  20200598    00000008     bsp_key.o (.data.key_tick)
                  202005a0    00000004     task_scheduler.o (.data.countdown_start)
                  202005a4    00000004     task_scheduler.o (.data.cur_menu)
                  202005a8    00000004     empty.o (.data.g_tick)
                  202005ac    00000004     chasis.o (.data.motor_invert)
                  202005b0    00000004     chasis.o (.data.move_timer_ms)
                  202005b4    00000004     task_scheduler.o (.data.pending_task)
                  202005b8    00000004     Task.o (.data.system_mode)
                  202005bc    00000002     bsp_UART.o (.data.rx_size)
                  202005be    00000002     bsp_UART1.o (.data.uart1_rx_size)
                  202005c0    00000001     chasis.o (.data.brake_hold)
                  202005c1    00000001     task_scheduler.o (.data.cursor)
                  202005c2    00000001     task_scheduler.o (.data.flag_enter)
                  202005c3    00000001     task_scheduler.o (.data.flag_next)
                  202005c4    00000001     empty.o (.data.g_flag_100hz)
                  202005c5    00000001     empty.o (.data.init_ok)
                  202005c6    00000001     task_scheduler.o (.data.menu_sp)
                  202005c7    00000001     chasis.o (.data.motor_test_mode)
                  202005c8    00000001     chasis.o (.data.move_state)
                  202005c9    00000001     task_scheduler.o (.data.need_draw)
                  202005ca    00000001     task_scheduler.o (.data.scroll)
                  202005cb    00000001     bsp_UART1.o (.data.uart1_isIDLE.rx_last_size)
                  202005cc    00000001     bsp_UART1.o (.data.uart1_isIDLE.stable_count)
                  202005cd    00000001     bsp_UART1.o (.data.uart1_rx_dma_complete_flag)
                  202005ce    00000001     bsp_UART1.o (.data.uart1_rx_length)
                  202005cf    00000001     bsp_UART1.o (.data.uart1_tx_complete_flag)
                  202005d0    00000001     bsp_UART1.o (.data.uart1_tx_dma_complete_flag)
                  202005d1    00000001     bsp_UART.o (.data.uart_isIDLE.rx_last_size)
                  202005d2    00000001     bsp_UART.o (.data.uart_isIDLE.stable_count)
                  202005d3    00000001     bsp_UART.o (.data.uart_rx_dma_complete_flag)
                  202005d4    00000001     bsp_UART.o (.data.uart_rx_length)
                  202005d5    00000001     bsp_UART.o (.data.uart_tx_complete_flag)
                  202005d6    00000001     bsp_UART.o (.data.uart_tx_dma_complete_flag)

.stack     0    20207e00    00000200     UNINITIALIZED
                  20207e00    00000004     libc.a : boot_cortex_m.c.obj (.stack)
                  20207e04    000001fc     --HOLE--

__llvm_prf_cnts 
*          0    20200000    00000000     UNINITIALIZED

__llvm_prf_bits 
*          0    20200000    00000000     UNINITIALIZED

MODULE SUMMARY

       Module                         code    ro data   rw data
       ------                         ----    -------   -------
    .\
       ti_msp_dl_config.o             4384    414       688    
       empty.o                        404     0         6      
       startup_mspm0g350x_ticlang.o   8       192       0      
    +--+------------------------------+-------+---------+---------+
       Total:                         4796    606       694    
                                                               
    .\User\bsp\Src\
       bsp_oled.o                     2098    2072      0      
       Task.o                         1804    0         36     
       chasis.o                       1106    16        307    
       task_scheduler.o               916     111       218    
       bsp_PWM.o                      868     0         16     
       bsp_UART1.o                    624     0         108    
       bsp_UART.o                     606     0         108    
       bsp_CAN.o                      400     0         0      
       ZDT_Driver.o                   328     0         0      
       bsp_key.o                      308     0         8      
       ZDT_CAN.o                      266     0         0      
       gimbal.o                       204     0         0      
    +--+------------------------------+-------+---------+---------+
       Total:                         9528    2199      801    
                                                               
    E:/TI/CCS/mspm0_sdk_2_10_00_04/source/ti/driverlib/lib/ticlang/m0p/mspm0g1x0x_g3x0x/driverlib.a
       dl_mcan.o                      2144    96        0      
       dl_sysctl_mspm0g1x0x_g3x0x.o   512     0         0      
       dl_timer.o                     356     0         0      
       dl_i2c.o                       132     0         0      
       dl_uart.o                      90      0         0      
       dl_dma.o                       76      0         0      
       dl_common.o                    10      0         0      
    +--+------------------------------+-------+---------+---------+
       Total:                         3320    96        0      
                                                               
    E:\TI\CCS\ccs\tools\compiler\ti-cgt-armllvm_4.0.4.LTS\lib\armv6m-ti-none-eabi/c/libc.a
       copy_decompress_lzss.c.obj     124     0         0      
       autoinit.c.obj                 60      0         0      
       boot_cortex_m.c.obj            56      0         0      
       copy_zero_init.c.obj           22      0         0      
       copy_decompress_none.c.obj     18      0         0      
       memcpy16.S.obj                 18      0         0      
       exit.c.obj                     6       0         0      
       pre_init.c.obj                 4       0         0      
    +--+------------------------------+-------+---------+---------+
       Total:                         308     0         0      
                                                               
    E:\TI\CCS\ccs\tools\compiler\ti-cgt-armllvm_4.0.4.LTS\lib\armv6m-ti-none-eabi/c/libsysbm.a
       hostexit.c.obj                 4       0         0      
    +--+------------------------------+-------+---------+---------+
       Total:                         4       0         0      
                                                               
    E:\TI\CCS\ccs\tools\compiler\ti-cgt-armllvm_4.0.4.LTS\lib\armv6m-ti-none-eabi/libclang_rt.builtins.a
       comparedf2.c.obj               220     0         0      
       addsf3.S.obj                   216     0         0      
       mulsf3.S.obj                   140     0         0      
       divsf3.S.obj                   130     0         0      
       comparesf2.S.obj               118     0         0      
       aeabi_dcmp.S.obj               98      0         0      
       aeabi_fcmp.S.obj               98      0         0      
       aeabi_uidivmod.S.obj           64      0         0      
       muldsi3.S.obj                  58      0         0      
       fixsfsi.S.obj                  56      0         0      
       floatunsidf.S.obj              36      0         0      
       aeabi_memcpy.S.obj             8       0         0      
       aeabi_div0.c.obj               2       0         0      
    +--+------------------------------+-------+---------+---------+
       Total:                         1244    0         0      
                                                               
       Stack:                         0       0         512    
       Linker Generated:              0       143       0      
    +--+------------------------------+-------+---------+---------+
       Grand Total:                   19200   3044      2007   


LINKER GENERATED COPY TABLES

__TI_cinit_table @ 000056f8 records: 2, size/record: 8, table size: 16
	.data: load addr=00005678, load size=0000006b bytes, run addr=202003b0, run size=00000227 bytes, compression=lzss
	.bss: load addr=000056f0, load size=00000008 bytes, run addr=20200000, run size=000003b0 bytes, compression=zero_init


LINKER GENERATED HANDLER TABLE

__TI_handler_table @ 000056e4 records: 3, size/record: 4, table size: 12
	index: 0, handler: __TI_decompress_lzss
	index: 1, handler: __TI_decompress_none
	index: 2, handler: __TI_zero_init


FAR CALL TRAMPOLINES

callee name               trampoline name
   callee addr  tramp addr   call addr  call info
--------------  -----------  ---------  ----------------
_c_int00_noargs           $Tramp$TT$L$PI$$_c_int00_noargs
   000040d5     00004bcc     00004bc6   startup_mspm0g350x_ticlang.o (.text.Reset_Handler)

[1 trampolines]
[1 trampoline calls]


GLOBAL SYMBOLS: SORTED ALPHABETICALLY BY Name 

address   name                                 
-------   ----                                 
00004bbf  ADC0_IRQHandler                      
00004bbf  ADC1_IRQHandler                      
00004bbf  AES_IRQHandler                       
00004bc2  C$$EXIT                              
000037b1  CANFD0_IRQHandler                    
00002ed1  CAN_Rx_FIFO0_New_Message_Callback    
000020d5  CAN_send_ext_frame                   
00004bbf  DAC0_IRQHandler                      
00004b9d  DL_Common_delayCycles                
000035a5  DL_DMA_initChannel                   
000031f5  DL_I2C_fillControllerTXFIFO          
000041bb  DL_I2C_setClockConfig                
00003c55  DL_MCAN_TXBufAddReq                  
00003e3d  DL_MCAN_TXBufTransIntrEnable         
00003e69  DL_MCAN_addExtMsgIDFilter            
00003e95  DL_MCAN_addStdMsgIDFilter            
000049dd  DL_MCAN_clearIntrStatus              
0000446d  DL_MCAN_enableIntr                   
00004489  DL_MCAN_enableIntrLine               
00004b55  DL_MCAN_getIntrStatus                
00004ad5  DL_MCAN_getOpMode                    
000037f5  DL_MCAN_getRevisionId                
00003be5  DL_MCAN_getRxFIFOStatus              
000042b5  DL_MCAN_getTxFIFOQueStatus           
00001a19  DL_MCAN_init                         
00004ae5  DL_MCAN_isMemInitDone                
00000531  DL_MCAN_msgRAMConfig                 
00000f91  DL_MCAN_readMsgRam                   
000044a5  DL_MCAN_selectIntrLine               
00001bd1  DL_MCAN_setBitTime                   
00004229  DL_MCAN_setClockConfig               
00003c89  DL_MCAN_setExtIDAndMask              
000047fd  DL_MCAN_setOpMode                    
000013a5  DL_MCAN_writeMsgRam                  
00003905  DL_MCAN_writeRxFIFOAck               
000044c1  DL_SYSCTL_configFCC                  
00001af5  DL_SYSCTL_configSYSPLL               
00003009  DL_SYSCTL_setHFCLKSourceHFXTParams   
00003135  DL_SYSCTL_setLFCLKSourceLFXT         
00003839  DL_SYSCTL_switchMCLKfromSYSOSCtoHSCLK
000011a9  DL_Timer_initFourCCPWMMode           
00004531  DL_Timer_setCaptCompUpdateMethod     
00004875  DL_Timer_setCaptureCompareOutCtl     
00004b25  DL_Timer_setCaptureCompareValue      
0000454d  DL_Timer_setClockConfig              
00003721  DL_UART_init                         
00004a9f  DL_UART_setClockConfig               
00004bbf  DMA_IRQHandler                       
00004bbf  Default_Handler                      
000036d5  Emm_V5_En_Control                    
00003945  Emm_V5_Origin_Set_O                  
000039c5  Emm_V5_Origin_Trigger_Return         
0000284f  Emm_V5_Pos_Control                   
00004bbf  GROUP0_IRQHandler                    
00003a41  GROUP1_IRQHandler                    
00004bc3  HOSTexit                             
00004bbf  HardFault_Handler                    
00004bbf  I2C0_IRQHandler                      
00004bbf  I2C1_IRQHandler                      
0000495f  KEY_Init                             
00002641  KEY_Poll                             
00004b79  Key_A18_Pressed                      
00004b85  Key_B21_Pressed                      
00003a7d  Menu_Init                            
00001499  Menu_Run                             
00004bbf  NMI_Handler                          
00002e65  OLED_Clear                           
00000e7d  OLED_Init                            
00003ab9  OLED_Set_Pos                         
00000d65  OLED_ShowChar                        
000012ad  OLED_ShowNum                         
00002d1d  OLED_ShowString                      
000022dd  OLED_WR_Byte                         
00004bbf  PendSV_Handler                       
00004bbf  RTC_IRQHandler                       
00004bc7  Reset_Handler                        
00004bbf  SPI0_IRQHandler                      
00004bbf  SPI1_IRQHandler                      
00004bbf  SVC_Handler                          
00003d4d  SYSCFG_DL_DMA_CH0_init               
00003d7d  SYSCFG_DL_DMA_CH1_init               
00003dad  SYSCFG_DL_DMA_CH2_init               
00003ddd  SYSCFG_DL_DMA_CH3_init               
00004a55  SYSCFG_DL_DMA_init                   
00001769  SYSCFG_DL_FRONT_OUT_init             
000008fd  SYSCFG_DL_GPIO_init                  
0000330d  SYSCFG_DL_I2C_OLED_init              
0000167d  SYSCFG_DL_MCAN0_init                 
00002375  SYSCFG_DL_RL_OUT_init                
00002241  SYSCFG_DL_RR_OUT_init                
00001851  SYSCFG_DL_SYSCTL_SYSPLL_init         
000028d1  SYSCFG_DL_SYSCTL_init                
00004b35  SYSCFG_DL_SYSTICK_init               
00002bb9  SYSCFG_DL_UART_0_init                
00002c31  SYSCFG_DL_UART_1_init                
00003255  SYSCFG_DL_init                       
00002191  SYSCFG_DL_initPower                  
000025b9  SysTick_Handler                      
00004bbf  TIMA0_IRQHandler                     
00004bbf  TIMA1_IRQHandler                     
00004bbf  TIMG0_IRQHandler                     
00004bbf  TIMG12_IRQHandler                    
00004bbf  TIMG6_IRQHandler                     
00004bbf  TIMG7_IRQHandler                     
00004bbf  TIMG8_IRQHandler                     
00004ab1  TI_memcpy_small                      
00003769  Task_Cleanup                         
00004905  Task_Done                            
0000294d  UART0_IRQHandler                     
000029c9  UART1_IRQHandler                     
00004ba7  UART1_Rx_DMA_ToIdle_Callback         
00004bbf  UART2_IRQHandler                     
00004bbf  UART3_IRQHandler                     
00001939  UART_Rx_DMA_ToIdle_Callback          
00004b91  User_Init                            
20208000  __STACK_END                          
00000200  __STACK_SIZE                         
00000000  __TI_ATRegion0_region_sz             
00000000  __TI_ATRegion0_src_addr              
00000000  __TI_ATRegion0_trg_addr              
00000000  __TI_ATRegion1_region_sz             
00000000  __TI_ATRegion1_src_addr              
00000000  __TI_ATRegion1_trg_addr              
00000000  __TI_ATRegion2_region_sz             
00000000  __TI_ATRegion2_src_addr              
00000000  __TI_ATRegion2_trg_addr              
000056f8  __TI_CINIT_Base                      
00005708  __TI_CINIT_Limit                     
00005708  __TI_CINIT_Warm                      
000056e4  __TI_Handler_Table_Base              
000056f0  __TI_Handler_Table_Limit             
00003b31  __TI_auto_init_nobinit_nopinit       
00002b3d  __TI_decompress_lzss                 
00004ac3  __TI_decompress_none                 
ffffffff  __TI_pprof_out_hndl                  
ffffffff  __TI_prof_data_size                  
ffffffff  __TI_prof_data_start                 
00000000  __TI_static_base__                   
00004975  __TI_zero_init_nomemset              
00001e63  __addsf3                             
0000306d  __aeabi_dcmpeq                       
000030a9  __aeabi_dcmpge                       
000030bd  __aeabi_dcmpgt                       
00003095  __aeabi_dcmple                       
00003081  __aeabi_dcmplt                       
00003c1d  __aeabi_f2iz                         
00001e63  __aeabi_fadd                         
000030d1  __aeabi_fcmpeq                       
0000310d  __aeabi_fcmpge                       
00003121  __aeabi_fcmpgt                       
000030f9  __aeabi_fcmple                       
000030e5  __aeabi_fcmplt                       
000027cd  __aeabi_fdiv                         
000024a1  __aeabi_fmul                         
00001e59  __aeabi_fsub                         
000011a7  __aeabi_idiv0                        
00004bb1  __aeabi_memcpy                       
00004bb1  __aeabi_memcpy4                      
00004bb1  __aeabi_memcpy8                      
00004271  __aeabi_ui2d                         
00003985  __aeabi_uidiv                        
00003985  __aeabi_uidivmod                     
ffffffff  __binit__                            
00002f39  __cmpdf2                             
00003b6d  __cmpsf2                             
000027cd  __divsf3                             
00002f39  __eqdf2                              
00003b6d  __eqsf2                              
00003c1d  __fixsfsi                            
00004271  __floatunsidf                        
00002ca9  __gedf2                              
00003af5  __gesf2                              
00002ca9  __gtdf2                              
00003af5  __gtsf2                              
00002f39  __ledf2                              
00003b6d  __lesf2                              
00002f39  __ltdf2                              
00003b6d  __ltsf2                              
UNDEFED   __mpu_init                           
00003ba9  __muldsi3                            
000024a1  __mulsf3                             
00002f39  __nedf2                              
00003b6d  __nesf2                              
20207e00  __stack                              
20200000  __start___llvm_prf_bits              
20200000  __start___llvm_prf_cnts              
20200000  __stop___llvm_prf_bits               
20200000  __stop___llvm_prf_cnts               
00001e59  __subsf3                             
000040d5  _c_int00_noargs                      
UNDEFED   _system_post_cinit                   
00004bdd  _system_pre_init                     
00004bb9  abort                                
000051d0  asc2_0806                            
00004be0  asc2_1608                            
ffffffff  binit                                
0000109d  can_SendCmd                          
0000387d  chasis_brake                         
00000aa1  chasis_cal                           
00002d8d  chasis_set_velocity                  
00004b45  chasis_stop                          
202005c2  flag_enter                           
202005c3  flag_next                            
20200000  gFRONT_OUTBackup                     
20200218  gMCAN0Backup                         
202000bc  gRL_OUTBackup                        
20200178  gRR_OUTBackup                        
202005c4  g_flag_100hz                         
202005a8  g_tick                               
00004333  gimbal_disable                       
000042f5  gimbal_enable                        
00004351  gimbal_return_zero                   
000045a1  gimbal_set_zero                      
00003365  gimbal_update                        
00002a45  handleCanRxMessage                   
202005c5  init_ok                              
00000000  interruptVectors                     
00002fa1  main                                 
00001f31  motor_brake                          
00001d81  motor_coast                          
00002005  motor_openloop_drive                 
00000745  motor_set                            
00002ac1  ms_callback                          
00004585  mspm0_delay_ms                       
00003f19  mspm0_get_clock_ms                   
00003195  oled_i2c_sda_unlock                  
00003e0d  oled_pow                             
00002df9  one_hundured_ms_callback             
202005bc  rx_size                              
202005b8  system_mode                          
0000240d  uart1_isIDLE                         
000033bd  uart1_receive_start                  
202002b0  uart1_rx_buff                        
202005cd  uart1_rx_dma_complete_flag           
202005ce  uart1_rx_length                      
202005be  uart1_rx_size                        
202005cf  uart1_tx_complete_flag               
202005d0  uart1_tx_dma_complete_flag           
0000252d  uart_isIDLE                          
00003411  uart_receive_start                   
20200314  uart_rx_buff                         
202005d3  uart_rx_dma_complete_flag            
202005d4  uart_rx_length                       
202005d5  uart_tx_complete_flag                
202005d6  uart_tx_dma_complete_flag            
202003b0  user_chasis                          
000000c1  while_task                           


GLOBAL SYMBOLS: SORTED BY Symbol Address 

address   name                                 
-------   ----                                 
00000000  __TI_ATRegion0_region_sz             
00000000  __TI_ATRegion0_src_addr              
00000000  __TI_ATRegion0_trg_addr              
00000000  __TI_ATRegion1_region_sz             
00000000  __TI_ATRegion1_src_addr              
00000000  __TI_ATRegion1_trg_addr              
00000000  __TI_ATRegion2_region_sz             
00000000  __TI_ATRegion2_src_addr              
00000000  __TI_ATRegion2_trg_addr              
00000000  __TI_static_base__                   
00000000  interruptVectors                     
000000c1  while_task                           
00000200  __STACK_SIZE                         
00000531  DL_MCAN_msgRAMConfig                 
00000745  motor_set                            
000008fd  SYSCFG_DL_GPIO_init                  
00000aa1  chasis_cal                           
00000d65  OLED_ShowChar                        
00000e7d  OLED_Init                            
00000f91  DL_MCAN_readMsgRam                   
0000109d  can_SendCmd                          
000011a7  __aeabi_idiv0                        
000011a9  DL_Timer_initFourCCPWMMode           
000012ad  OLED_ShowNum                         
000013a5  DL_MCAN_writeMsgRam                  
00001499  Menu_Run                             
0000167d  SYSCFG_DL_MCAN0_init                 
00001769  SYSCFG_DL_FRONT_OUT_init             
00001851  SYSCFG_DL_SYSCTL_SYSPLL_init         
00001939  UART_Rx_DMA_ToIdle_Callback          
00001a19  DL_MCAN_init                         
00001af5  DL_SYSCTL_configSYSPLL               
00001bd1  DL_MCAN_setBitTime                   
00001d81  motor_coast                          
00001e59  __aeabi_fsub                         
00001e59  __subsf3                             
00001e63  __addsf3                             
00001e63  __aeabi_fadd                         
00001f31  motor_brake                          
00002005  motor_openloop_drive                 
000020d5  CAN_send_ext_frame                   
00002191  SYSCFG_DL_initPower                  
00002241  SYSCFG_DL_RR_OUT_init                
000022dd  OLED_WR_Byte                         
00002375  SYSCFG_DL_RL_OUT_init                
0000240d  uart1_isIDLE                         
000024a1  __aeabi_fmul                         
000024a1  __mulsf3                             
0000252d  uart_isIDLE                          
000025b9  SysTick_Handler                      
00002641  KEY_Poll                             
000027cd  __aeabi_fdiv                         
000027cd  __divsf3                             
0000284f  Emm_V5_Pos_Control                   
000028d1  SYSCFG_DL_SYSCTL_init                
0000294d  UART0_IRQHandler                     
000029c9  UART1_IRQHandler                     
00002a45  handleCanRxMessage                   
00002ac1  ms_callback                          
00002b3d  __TI_decompress_lzss                 
00002bb9  SYSCFG_DL_UART_0_init                
00002c31  SYSCFG_DL_UART_1_init                
00002ca9  __gedf2                              
00002ca9  __gtdf2                              
00002d1d  OLED_ShowString                      
00002d8d  chasis_set_velocity                  
00002df9  one_hundured_ms_callback             
00002e65  OLED_Clear                           
00002ed1  CAN_Rx_FIFO0_New_Message_Callback    
00002f39  __cmpdf2                             
00002f39  __eqdf2                              
00002f39  __ledf2                              
00002f39  __ltdf2                              
00002f39  __nedf2                              
00002fa1  main                                 
00003009  DL_SYSCTL_setHFCLKSourceHFXTParams   
0000306d  __aeabi_dcmpeq                       
00003081  __aeabi_dcmplt                       
00003095  __aeabi_dcmple                       
000030a9  __aeabi_dcmpge                       
000030bd  __aeabi_dcmpgt                       
000030d1  __aeabi_fcmpeq                       
000030e5  __aeabi_fcmplt                       
000030f9  __aeabi_fcmple                       
0000310d  __aeabi_fcmpge                       
00003121  __aeabi_fcmpgt                       
00003135  DL_SYSCTL_setLFCLKSourceLFXT         
00003195  oled_i2c_sda_unlock                  
000031f5  DL_I2C_fillControllerTXFIFO          
00003255  SYSCFG_DL_init                       
0000330d  SYSCFG_DL_I2C_OLED_init              
00003365  gimbal_update                        
000033bd  uart1_receive_start                  
00003411  uart_receive_start                   
000035a5  DL_DMA_initChannel                   
000036d5  Emm_V5_En_Control                    
00003721  DL_UART_init                         
00003769  Task_Cleanup                         
000037b1  CANFD0_IRQHandler                    
000037f5  DL_MCAN_getRevisionId                
00003839  DL_SYSCTL_switchMCLKfromSYSOSCtoHSCLK
0000387d  chasis_brake                         
00003905  DL_MCAN_writeRxFIFOAck               
00003945  Emm_V5_Origin_Set_O                  
00003985  __aeabi_uidiv                        
00003985  __aeabi_uidivmod                     
000039c5  Emm_V5_Origin_Trigger_Return         
00003a41  GROUP1_IRQHandler                    
00003a7d  Menu_Init                            
00003ab9  OLED_Set_Pos                         
00003af5  __gesf2                              
00003af5  __gtsf2                              
00003b31  __TI_auto_init_nobinit_nopinit       
00003b6d  __cmpsf2                             
00003b6d  __eqsf2                              
00003b6d  __lesf2                              
00003b6d  __ltsf2                              
00003b6d  __nesf2                              
00003ba9  __muldsi3                            
00003be5  DL_MCAN_getRxFIFOStatus              
00003c1d  __aeabi_f2iz                         
00003c1d  __fixsfsi                            
00003c55  DL_MCAN_TXBufAddReq                  
00003c89  DL_MCAN_setExtIDAndMask              
00003d4d  SYSCFG_DL_DMA_CH0_init               
00003d7d  SYSCFG_DL_DMA_CH1_init               
00003dad  SYSCFG_DL_DMA_CH2_init               
00003ddd  SYSCFG_DL_DMA_CH3_init               
00003e0d  oled_pow                             
00003e3d  DL_MCAN_TXBufTransIntrEnable         
00003e69  DL_MCAN_addExtMsgIDFilter            
00003e95  DL_MCAN_addStdMsgIDFilter            
00003f19  mspm0_get_clock_ms                   
000040d5  _c_int00_noargs                      
000041bb  DL_I2C_setClockConfig                
00004229  DL_MCAN_setClockConfig               
00004271  __aeabi_ui2d                         
00004271  __floatunsidf                        
000042b5  DL_MCAN_getTxFIFOQueStatus           
000042f5  gimbal_enable                        
00004333  gimbal_disable                       
00004351  gimbal_return_zero                   
0000446d  DL_MCAN_enableIntr                   
00004489  DL_MCAN_enableIntrLine               
000044a5  DL_MCAN_selectIntrLine               
000044c1  DL_SYSCTL_configFCC                  
00004531  DL_Timer_setCaptCompUpdateMethod     
0000454d  DL_Timer_setClockConfig              
00004585  mspm0_delay_ms                       
000045a1  gimbal_set_zero                      
000047fd  DL_MCAN_setOpMode                    
00004875  DL_Timer_setCaptureCompareOutCtl     
00004905  Task_Done                            
0000495f  KEY_Init                             
00004975  __TI_zero_init_nomemset              
000049dd  DL_MCAN_clearIntrStatus              
00004a55  SYSCFG_DL_DMA_init                   
00004a9f  DL_UART_setClockConfig               
00004ab1  TI_memcpy_small                      
00004ac3  __TI_decompress_none                 
00004ad5  DL_MCAN_getOpMode                    
00004ae5  DL_MCAN_isMemInitDone                
00004b25  DL_Timer_setCaptureCompareValue      
00004b35  SYSCFG_DL_SYSTICK_init               
00004b45  chasis_stop                          
00004b55  DL_MCAN_getIntrStatus                
00004b79  Key_A18_Pressed                      
00004b85  Key_B21_Pressed                      
00004b91  User_Init                            
00004b9d  DL_Common_delayCycles                
00004ba7  UART1_Rx_DMA_ToIdle_Callback         
00004bb1  __aeabi_memcpy                       
00004bb1  __aeabi_memcpy4                      
00004bb1  __aeabi_memcpy8                      
00004bb9  abort                                
00004bbf  ADC0_IRQHandler                      
00004bbf  ADC1_IRQHandler                      
00004bbf  AES_IRQHandler                       
00004bbf  DAC0_IRQHandler                      
00004bbf  DMA_IRQHandler                       
00004bbf  Default_Handler                      
00004bbf  GROUP0_IRQHandler                    
00004bbf  HardFault_Handler                    
00004bbf  I2C0_IRQHandler                      
00004bbf  I2C1_IRQHandler                      
00004bbf  NMI_Handler                          
00004bbf  PendSV_Handler                       
00004bbf  RTC_IRQHandler                       
00004bbf  SPI0_IRQHandler                      
00004bbf  SPI1_IRQHandler                      
00004bbf  SVC_Handler                          
00004bbf  TIMA0_IRQHandler                     
00004bbf  TIMA1_IRQHandler                     
00004bbf  TIMG0_IRQHandler                     
00004bbf  TIMG12_IRQHandler                    
00004bbf  TIMG6_IRQHandler                     
00004bbf  TIMG7_IRQHandler                     
00004bbf  TIMG8_IRQHandler                     
00004bbf  UART2_IRQHandler                     
00004bbf  UART3_IRQHandler                     
00004bc2  C$$EXIT                              
00004bc3  HOSTexit                             
00004bc7  Reset_Handler                        
00004bdd  _system_pre_init                     
00004be0  asc2_1608                            
000051d0  asc2_0806                            
000056e4  __TI_Handler_Table_Base              
000056f0  __TI_Handler_Table_Limit             
000056f8  __TI_CINIT_Base                      
00005708  __TI_CINIT_Limit                     
00005708  __TI_CINIT_Warm                      
20200000  __start___llvm_prf_bits              
20200000  __start___llvm_prf_cnts              
20200000  __stop___llvm_prf_bits               
20200000  __stop___llvm_prf_cnts               
20200000  gFRONT_OUTBackup                     
202000bc  gRL_OUTBackup                        
20200178  gRR_OUTBackup                        
20200218  gMCAN0Backup                         
202002b0  uart1_rx_buff                        
20200314  uart_rx_buff                         
202003b0  user_chasis                          
202005a8  g_tick                               
202005b8  system_mode                          
202005bc  rx_size                              
202005be  uart1_rx_size                        
202005c2  flag_enter                           
202005c3  flag_next                            
202005c4  g_flag_100hz                         
202005c5  init_ok                              
202005cd  uart1_rx_dma_complete_flag           
202005ce  uart1_rx_length                      
202005cf  uart1_tx_complete_flag               
202005d0  uart1_tx_dma_complete_flag           
202005d3  uart_rx_dma_complete_flag            
202005d4  uart_rx_length                       
202005d5  uart_tx_complete_flag                
202005d6  uart_tx_dma_complete_flag            
20207e00  __stack                              
20208000  __STACK_END                          
ffffffff  __TI_pprof_out_hndl                  
ffffffff  __TI_prof_data_size                  
ffffffff  __TI_prof_data_start                 
ffffffff  __binit__                            
ffffffff  binit                                
UNDEFED   __mpu_init                           
UNDEFED   _system_post_cinit                   

[247 symbols]
